
AVRASM ver. 2.1.30  C:\ChipAVR\Proyecto\PrimerMicro\Debug\List\PrimerMicro.asm Sat Jun 15 18:06:51 2024

                 
                 
                 ;CodeVisionAVR C Compiler V3.12 Advanced
                 ;(C) Copyright 1998-2014 Pavel Haiduc, HP InfoTech s.r.l.
                 ;http://www.hpinfotech.com
                 
                 ;Build configuration    : Debug
                 ;Chip type              : ATmega328P
                 ;Program type           : Application
                 ;Clock frequency        : 1.000000 MHz
                 ;Memory model           : Small
                 ;Optimize for           : Size
                 ;(s)printf features     : int, width
                 ;(s)scanf features      : int, width
                 ;External RAM size      : 0
                 ;Data Stack size        : 512 byte(s)
                 ;Heap size              : 0 byte(s)
                 ;Promote 'char' to 'int': Yes
                 ;'char' is unsigned     : Yes
                 ;8 bit enums            : Yes
                 ;Global 'const' stored in FLASH: No
                 ;Enhanced function parameter passing: Yes
                 ;Enhanced core instructions: On
                 ;Automatic register allocation for global variables: Off
                 ;Smart register allocation: Off
                 
                 	#define _MODEL_SMALL_
                 
                 	#pragma AVRPART ADMIN PART_NAME ATmega328P
                 	#pragma AVRPART MEMORY PROG_FLASH 32768
                 	#pragma AVRPART MEMORY EEPROM 1024
                 	#pragma AVRPART MEMORY INT_SRAM SIZE 2048
                 	#pragma AVRPART MEMORY INT_SRAM START_ADDR 0x100
                 
                 	#define CALL_SUPPORTED 1
                 
                 	.LISTMAC
                 	.EQU EERE=0x0
                 	.EQU EEWE=0x1
                 	.EQU EEMWE=0x2
                 	.EQU UDRE=0x5
                 	.EQU RXC=0x7
                 	.EQU EECR=0x1F
                 	.EQU EEDR=0x20
                 	.EQU EEARL=0x21
                 	.EQU EEARH=0x22
                 	.EQU SPSR=0x2D
                 	.EQU SPDR=0x2E
                 	.EQU SMCR=0x33
                 	.EQU MCUSR=0x34
                 	.EQU MCUCR=0x35
                 	.EQU WDTCSR=0x60
                 	.EQU UCSR0A=0xC0
                 	.EQU UDR0=0xC6
                 	.EQU SPL=0x3D
                 	.EQU SPH=0x3E
                 	.EQU SREG=0x3F
                 	.EQU GPIOR0=0x1E
                 
                 	.DEF R0X0=R0
                 	.DEF R0X1=R1
                 	.DEF R0X2=R2
                 	.DEF R0X3=R3
                 	.DEF R0X4=R4
                 	.DEF R0X5=R5
                 	.DEF R0X6=R6
                 	.DEF R0X7=R7
                 	.DEF R0X8=R8
                 	.DEF R0X9=R9
                 	.DEF R0XA=R10
                 	.DEF R0XB=R11
                 	.DEF R0XC=R12
                 	.DEF R0XD=R13
                 	.DEF R0XE=R14
                 	.DEF R0XF=R15
                 	.DEF R0X10=R16
                 	.DEF R0X11=R17
                 	.DEF R0X12=R18
                 	.DEF R0X13=R19
                 	.DEF R0X14=R20
                 	.DEF R0X15=R21
                 	.DEF R0X16=R22
                 	.DEF R0X17=R23
                 	.DEF R0X18=R24
                 	.DEF R0X19=R25
                 	.DEF R0X1A=R26
                 	.DEF R0X1B=R27
                 	.DEF R0X1C=R28
                 	.DEF R0X1D=R29
                 	.DEF R0X1E=R30
                 	.DEF R0X1F=R31
                 
                 	.EQU __SRAM_START=0x0100
                 	.EQU __SRAM_END=0x08FF
                 	.EQU __DSTACK_SIZE=0x0200
                 	.EQU __HEAP_SIZE=0x0000
                 	.EQU __CLEAR_SRAM_SIZE=__SRAM_END-__SRAM_START+1
                 
                 	.MACRO __CPD1N
                 	CPI  R30,LOW(@0)
                 	LDI  R26,HIGH(@0)
                 	CPC  R31,R26
                 	LDI  R26,BYTE3(@0)
                 	CPC  R22,R26
                 	LDI  R26,BYTE4(@0)
                 	CPC  R23,R26
                 	.ENDM
                 
                 	.MACRO __CPD2N
                 	CPI  R26,LOW(@0)
                 	LDI  R30,HIGH(@0)
                 	CPC  R27,R30
                 	LDI  R30,BYTE3(@0)
                 	CPC  R24,R30
                 	LDI  R30,BYTE4(@0)
                 	CPC  R25,R30
                 	.ENDM
                 
                 	.MACRO __CPWRR
                 	CP   R@0,R@2
                 	CPC  R@1,R@3
                 	.ENDM
                 
                 	.MACRO __CPWRN
                 	CPI  R@0,LOW(@2)
                 	LDI  R30,HIGH(@2)
                 	CPC  R@1,R30
                 	.ENDM
                 
                 	.MACRO __ADDB1MN
                 	SUBI R30,LOW(-@0-(@1))
                 	.ENDM
                 
                 	.MACRO __ADDB2MN
                 	SUBI R26,LOW(-@0-(@1))
                 	.ENDM
                 
                 	.MACRO __ADDW1MN
                 	SUBI R30,LOW(-@0-(@1))
                 	SBCI R31,HIGH(-@0-(@1))
                 	.ENDM
                 
                 	.MACRO __ADDW2MN
                 	SUBI R26,LOW(-@0-(@1))
                 	SBCI R27,HIGH(-@0-(@1))
                 	.ENDM
                 
                 	.MACRO __ADDW1FN
                 	SUBI R30,LOW(-2*@0-(@1))
                 	SBCI R31,HIGH(-2*@0-(@1))
                 	.ENDM
                 
                 	.MACRO __ADDD1FN
                 	SUBI R30,LOW(-2*@0-(@1))
                 	SBCI R31,HIGH(-2*@0-(@1))
                 	SBCI R22,BYTE3(-2*@0-(@1))
                 	.ENDM
                 
                 	.MACRO __ADDD1N
                 	SUBI R30,LOW(-@0)
                 	SBCI R31,HIGH(-@0)
                 	SBCI R22,BYTE3(-@0)
                 	SBCI R23,BYTE4(-@0)
                 	.ENDM
                 
                 	.MACRO __ADDD2N
                 	SUBI R26,LOW(-@0)
                 	SBCI R27,HIGH(-@0)
                 	SBCI R24,BYTE3(-@0)
                 	SBCI R25,BYTE4(-@0)
                 	.ENDM
                 
                 	.MACRO __SUBD1N
                 	SUBI R30,LOW(@0)
                 	SBCI R31,HIGH(@0)
                 	SBCI R22,BYTE3(@0)
                 	SBCI R23,BYTE4(@0)
                 	.ENDM
                 
                 	.MACRO __SUBD2N
                 	SUBI R26,LOW(@0)
                 	SBCI R27,HIGH(@0)
                 	SBCI R24,BYTE3(@0)
                 	SBCI R25,BYTE4(@0)
                 	.ENDM
                 
                 	.MACRO __ANDBMNN
                 	LDS  R30,@0+(@1)
                 	ANDI R30,LOW(@2)
                 	STS  @0+(@1),R30
                 	.ENDM
                 
                 	.MACRO __ANDWMNN
                 	LDS  R30,@0+(@1)
                 	ANDI R30,LOW(@2)
                 	STS  @0+(@1),R30
                 	LDS  R30,@0+(@1)+1
                 	ANDI R30,HIGH(@2)
                 	STS  @0+(@1)+1,R30
                 	.ENDM
                 
                 	.MACRO __ANDD1N
                 	ANDI R30,LOW(@0)
                 	ANDI R31,HIGH(@0)
                 	ANDI R22,BYTE3(@0)
                 	ANDI R23,BYTE4(@0)
                 	.ENDM
                 
                 	.MACRO __ANDD2N
                 	ANDI R26,LOW(@0)
                 	ANDI R27,HIGH(@0)
                 	ANDI R24,BYTE3(@0)
                 	ANDI R25,BYTE4(@0)
                 	.ENDM
                 
                 	.MACRO __ORBMNN
                 	LDS  R30,@0+(@1)
                 	ORI  R30,LOW(@2)
                 	STS  @0+(@1),R30
                 	.ENDM
                 
                 	.MACRO __ORWMNN
                 	LDS  R30,@0+(@1)
                 	ORI  R30,LOW(@2)
                 	STS  @0+(@1),R30
                 	LDS  R30,@0+(@1)+1
                 	ORI  R30,HIGH(@2)
                 	STS  @0+(@1)+1,R30
                 	.ENDM
                 
                 	.MACRO __ORD1N
                 	ORI  R30,LOW(@0)
                 	ORI  R31,HIGH(@0)
                 	ORI  R22,BYTE3(@0)
                 	ORI  R23,BYTE4(@0)
                 	.ENDM
                 
                 	.MACRO __ORD2N
                 	ORI  R26,LOW(@0)
                 	ORI  R27,HIGH(@0)
                 	ORI  R24,BYTE3(@0)
                 	ORI  R25,BYTE4(@0)
                 	.ENDM
                 
                 	.MACRO __DELAY_USB
                 	LDI  R24,LOW(@0)
                 __DELAY_USB_LOOP:
                 	DEC  R24
                 	BRNE __DELAY_USB_LOOP
                 	.ENDM
                 
                 	.MACRO __DELAY_USW
                 	LDI  R24,LOW(@0)
                 	LDI  R25,HIGH(@0)
                 __DELAY_USW_LOOP:
                 	SBIW R24,1
                 	BRNE __DELAY_USW_LOOP
                 	.ENDM
                 
                 	.MACRO __GETD1S
                 	LDD  R30,Y+@0
                 	LDD  R31,Y+@0+1
                 	LDD  R22,Y+@0+2
                 	LDD  R23,Y+@0+3
                 	.ENDM
                 
                 	.MACRO __GETD2S
                 	LDD  R26,Y+@0
                 	LDD  R27,Y+@0+1
                 	LDD  R24,Y+@0+2
                 	LDD  R25,Y+@0+3
                 	.ENDM
                 
                 	.MACRO __PUTD1S
                 	STD  Y+@0,R30
                 	STD  Y+@0+1,R31
                 	STD  Y+@0+2,R22
                 	STD  Y+@0+3,R23
                 	.ENDM
                 
                 	.MACRO __PUTD2S
                 	STD  Y+@0,R26
                 	STD  Y+@0+1,R27
                 	STD  Y+@0+2,R24
                 	STD  Y+@0+3,R25
                 	.ENDM
                 
                 	.MACRO __PUTDZ2
                 	STD  Z+@0,R26
                 	STD  Z+@0+1,R27
                 	STD  Z+@0+2,R24
                 	STD  Z+@0+3,R25
                 	.ENDM
                 
                 	.MACRO __CLRD1S
                 	STD  Y+@0,R30
                 	STD  Y+@0+1,R30
                 	STD  Y+@0+2,R30
                 	STD  Y+@0+3,R30
                 	.ENDM
                 
                 	.MACRO __POINTB1MN
                 	LDI  R30,LOW(@0+(@1))
                 	.ENDM
                 
                 	.MACRO __POINTW1MN
                 	LDI  R30,LOW(@0+(@1))
                 	LDI  R31,HIGH(@0+(@1))
                 	.ENDM
                 
                 	.MACRO __POINTD1M
                 	LDI  R30,LOW(@0)
                 	LDI  R31,HIGH(@0)
                 	LDI  R22,BYTE3(@0)
                 	LDI  R23,BYTE4(@0)
                 	.ENDM
                 
                 	.MACRO __POINTW1FN
                 	LDI  R30,LOW(2*@0+(@1))
                 	LDI  R31,HIGH(2*@0+(@1))
                 	.ENDM
                 
                 	.MACRO __POINTD1FN
                 	LDI  R30,LOW(2*@0+(@1))
                 	LDI  R31,HIGH(2*@0+(@1))
                 	LDI  R22,BYTE3(2*@0+(@1))
                 	LDI  R23,BYTE4(2*@0+(@1))
                 	.ENDM
                 
                 	.MACRO __POINTB2MN
                 	LDI  R26,LOW(@0+(@1))
                 	.ENDM
                 
                 	.MACRO __POINTW2MN
                 	LDI  R26,LOW(@0+(@1))
                 	LDI  R27,HIGH(@0+(@1))
                 	.ENDM
                 
                 	.MACRO __POINTW2FN
                 	LDI  R26,LOW(2*@0+(@1))
                 	LDI  R27,HIGH(2*@0+(@1))
                 	.ENDM
                 
                 	.MACRO __POINTD2FN
                 	LDI  R26,LOW(2*@0+(@1))
                 	LDI  R27,HIGH(2*@0+(@1))
                 	LDI  R24,BYTE3(2*@0+(@1))
                 	LDI  R25,BYTE4(2*@0+(@1))
                 	.ENDM
                 
                 	.MACRO __POINTBRM
                 	LDI  R@0,LOW(@1)
                 	.ENDM
                 
                 	.MACRO __POINTWRM
                 	LDI  R@0,LOW(@2)
                 	LDI  R@1,HIGH(@2)
                 	.ENDM
                 
                 	.MACRO __POINTBRMN
                 	LDI  R@0,LOW(@1+(@2))
                 	.ENDM
                 
                 	.MACRO __POINTWRMN
                 	LDI  R@0,LOW(@2+(@3))
                 	LDI  R@1,HIGH(@2+(@3))
                 	.ENDM
                 
                 	.MACRO __POINTWRFN
                 	LDI  R@0,LOW(@2*2+(@3))
                 	LDI  R@1,HIGH(@2*2+(@3))
                 	.ENDM
                 
                 	.MACRO __GETD1N
                 	LDI  R30,LOW(@0)
                 	LDI  R31,HIGH(@0)
                 	LDI  R22,BYTE3(@0)
                 	LDI  R23,BYTE4(@0)
                 	.ENDM
                 
                 	.MACRO __GETD2N
                 	LDI  R26,LOW(@0)
                 	LDI  R27,HIGH(@0)
                 	LDI  R24,BYTE3(@0)
                 	LDI  R25,BYTE4(@0)
                 	.ENDM
                 
                 	.MACRO __GETB1MN
                 	LDS  R30,@0+(@1)
                 	.ENDM
                 
                 	.MACRO __GETB1HMN
                 	LDS  R31,@0+(@1)
                 	.ENDM
                 
                 	.MACRO __GETW1MN
                 	LDS  R30,@0+(@1)
                 	LDS  R31,@0+(@1)+1
                 	.ENDM
                 
                 	.MACRO __GETD1MN
                 	LDS  R30,@0+(@1)
                 	LDS  R31,@0+(@1)+1
                 	LDS  R22,@0+(@1)+2
                 	LDS  R23,@0+(@1)+3
                 	.ENDM
                 
                 	.MACRO __GETBRMN
                 	LDS  R@0,@1+(@2)
                 	.ENDM
                 
                 	.MACRO __GETWRMN
                 	LDS  R@0,@2+(@3)
                 	LDS  R@1,@2+(@3)+1
                 	.ENDM
                 
                 	.MACRO __GETWRZ
                 	LDD  R@0,Z+@2
                 	LDD  R@1,Z+@2+1
                 	.ENDM
                 
                 	.MACRO __GETD2Z
                 	LDD  R26,Z+@0
                 	LDD  R27,Z+@0+1
                 	LDD  R24,Z+@0+2
                 	LDD  R25,Z+@0+3
                 	.ENDM
                 
                 	.MACRO __GETB2MN
                 	LDS  R26,@0+(@1)
                 	.ENDM
                 
                 	.MACRO __GETW2MN
                 	LDS  R26,@0+(@1)
                 	LDS  R27,@0+(@1)+1
                 	.ENDM
                 
                 	.MACRO __GETD2MN
                 	LDS  R26,@0+(@1)
                 	LDS  R27,@0+(@1)+1
                 	LDS  R24,@0+(@1)+2
                 	LDS  R25,@0+(@1)+3
                 	.ENDM
                 
                 	.MACRO __PUTB1MN
                 	STS  @0+(@1),R30
                 	.ENDM
                 
                 	.MACRO __PUTW1MN
                 	STS  @0+(@1),R30
                 	STS  @0+(@1)+1,R31
                 	.ENDM
                 
                 	.MACRO __PUTD1MN
                 	STS  @0+(@1),R30
                 	STS  @0+(@1)+1,R31
                 	STS  @0+(@1)+2,R22
                 	STS  @0+(@1)+3,R23
                 	.ENDM
                 
                 	.MACRO __PUTB1EN
                 	LDI  R26,LOW(@0+(@1))
                 	LDI  R27,HIGH(@0+(@1))
                 	CALL __EEPROMWRB
                 	.ENDM
                 
                 	.MACRO __PUTW1EN
                 	LDI  R26,LOW(@0+(@1))
                 	LDI  R27,HIGH(@0+(@1))
                 	CALL __EEPROMWRW
                 	.ENDM
                 
                 	.MACRO __PUTD1EN
                 	LDI  R26,LOW(@0+(@1))
                 	LDI  R27,HIGH(@0+(@1))
                 	CALL __EEPROMWRD
                 	.ENDM
                 
                 	.MACRO __PUTBR0MN
                 	STS  @0+(@1),R0
                 	.ENDM
                 
                 	.MACRO __PUTBMRN
                 	STS  @0+(@1),R@2
                 	.ENDM
                 
                 	.MACRO __PUTWMRN
                 	STS  @0+(@1),R@2
                 	STS  @0+(@1)+1,R@3
                 	.ENDM
                 
                 	.MACRO __PUTBZR
                 	STD  Z+@1,R@0
                 	.ENDM
                 
                 	.MACRO __PUTWZR
                 	STD  Z+@2,R@0
                 	STD  Z+@2+1,R@1
                 	.ENDM
                 
                 	.MACRO __GETW1R
                 	MOV  R30,R@0
                 	MOV  R31,R@1
                 	.ENDM
                 
                 	.MACRO __GETW2R
                 	MOV  R26,R@0
                 	MOV  R27,R@1
                 	.ENDM
                 
                 	.MACRO __GETWRN
                 	LDI  R@0,LOW(@2)
                 	LDI  R@1,HIGH(@2)
                 	.ENDM
                 
                 	.MACRO __PUTW1R
                 	MOV  R@0,R30
                 	MOV  R@1,R31
                 	.ENDM
                 
                 	.MACRO __PUTW2R
                 	MOV  R@0,R26
                 	MOV  R@1,R27
                 	.ENDM
                 
                 	.MACRO __ADDWRN
                 	SUBI R@0,LOW(-@2)
                 	SBCI R@1,HIGH(-@2)
                 	.ENDM
                 
                 	.MACRO __ADDWRR
                 	ADD  R@0,R@2
                 	ADC  R@1,R@3
                 	.ENDM
                 
                 	.MACRO __SUBWRN
                 	SUBI R@0,LOW(@2)
                 	SBCI R@1,HIGH(@2)
                 	.ENDM
                 
                 	.MACRO __SUBWRR
                 	SUB  R@0,R@2
                 	SBC  R@1,R@3
                 	.ENDM
                 
                 	.MACRO __ANDWRN
                 	ANDI R@0,LOW(@2)
                 	ANDI R@1,HIGH(@2)
                 	.ENDM
                 
                 	.MACRO __ANDWRR
                 	AND  R@0,R@2
                 	AND  R@1,R@3
                 	.ENDM
                 
                 	.MACRO __ORWRN
                 	ORI  R@0,LOW(@2)
                 	ORI  R@1,HIGH(@2)
                 	.ENDM
                 
                 	.MACRO __ORWRR
                 	OR   R@0,R@2
                 	OR   R@1,R@3
                 	.ENDM
                 
                 	.MACRO __EORWRR
                 	EOR  R@0,R@2
                 	EOR  R@1,R@3
                 	.ENDM
                 
                 	.MACRO __GETWRS
                 	LDD  R@0,Y+@2
                 	LDD  R@1,Y+@2+1
                 	.ENDM
                 
                 	.MACRO __PUTBSR
                 	STD  Y+@1,R@0
                 	.ENDM
                 
                 	.MACRO __PUTWSR
                 	STD  Y+@2,R@0
                 	STD  Y+@2+1,R@1
                 	.ENDM
                 
                 	.MACRO __MOVEWRR
                 	MOV  R@0,R@2
                 	MOV  R@1,R@3
                 	.ENDM
                 
                 	.MACRO __INWR
                 	IN   R@0,@2
                 	IN   R@1,@2+1
                 	.ENDM
                 
                 	.MACRO __OUTWR
                 	OUT  @2+1,R@1
                 	OUT  @2,R@0
                 	.ENDM
                 
                 	.MACRO __CALL1MN
                 	LDS  R30,@0+(@1)
                 	LDS  R31,@0+(@1)+1
                 	ICALL
                 	.ENDM
                 
                 	.MACRO __CALL1FN
                 	LDI  R30,LOW(2*@0+(@1))
                 	LDI  R31,HIGH(2*@0+(@1))
                 	CALL __GETW1PF
                 	ICALL
                 	.ENDM
                 
                 	.MACRO __CALL2EN
                 	PUSH R26
                 	PUSH R27
                 	LDI  R26,LOW(@0+(@1))
                 	LDI  R27,HIGH(@0+(@1))
                 	CALL __EEPROMRDW
                 	POP  R27
                 	POP  R26
                 	ICALL
                 	.ENDM
                 
                 	.MACRO __CALL2EX
                 	SUBI R26,LOW(-@0)
                 	SBCI R27,HIGH(-@0)
                 	CALL __EEPROMRDD
                 	ICALL
                 	.ENDM
                 
                 	.MACRO __GETW1STACK
                 	IN   R30,SPL
                 	IN   R31,SPH
                 	ADIW R30,@0+1
                 	LD   R0,Z+
                 	LD   R31,Z
                 	MOV  R30,R0
                 	.ENDM
                 
                 	.MACRO __GETD1STACK
                 	IN   R30,SPL
                 	IN   R31,SPH
                 	ADIW R30,@0+1
                 	LD   R0,Z+
                 	LD   R1,Z+
                 	LD   R22,Z
                 	MOVW R30,R0
                 	.ENDM
                 
                 	.MACRO __NBST
                 	BST  R@0,@1
                 	IN   R30,SREG
                 	LDI  R31,0x40
                 	EOR  R30,R31
                 	OUT  SREG,R30
                 	.ENDM
                 
                 
                 	.MACRO __PUTB1SN
                 	LDD  R26,Y+@0
                 	LDD  R27,Y+@0+1
                 	SUBI R26,LOW(-@1)
                 	SBCI R27,HIGH(-@1)
                 	ST   X,R30
                 	.ENDM
                 
                 	.MACRO __PUTW1SN
                 	LDD  R26,Y+@0
                 	LDD  R27,Y+@0+1
                 	SUBI R26,LOW(-@1)
                 	SBCI R27,HIGH(-@1)
                 	ST   X+,R30
                 	ST   X,R31
                 	.ENDM
                 
                 	.MACRO __PUTD1SN
                 	LDD  R26,Y+@0
                 	LDD  R27,Y+@0+1
                 	SUBI R26,LOW(-@1)
                 	SBCI R27,HIGH(-@1)
                 	CALL __PUTDP1
                 	.ENDM
                 
                 	.MACRO __PUTB1SNS
                 	LDD  R26,Y+@0
                 	LDD  R27,Y+@0+1
                 	ADIW R26,@1
                 	ST   X,R30
                 	.ENDM
                 
                 	.MACRO __PUTW1SNS
                 	LDD  R26,Y+@0
                 	LDD  R27,Y+@0+1
                 	ADIW R26,@1
                 	ST   X+,R30
                 	ST   X,R31
                 	.ENDM
                 
                 	.MACRO __PUTD1SNS
                 	LDD  R26,Y+@0
                 	LDD  R27,Y+@0+1
                 	ADIW R26,@1
                 	CALL __PUTDP1
                 	.ENDM
                 
                 	.MACRO __PUTB1PMN
                 	LDS  R26,@0
                 	LDS  R27,@0+1
                 	SUBI R26,LOW(-@1)
                 	SBCI R27,HIGH(-@1)
                 	ST   X,R30
                 	.ENDM
                 
                 	.MACRO __PUTW1PMN
                 	LDS  R26,@0
                 	LDS  R27,@0+1
                 	SUBI R26,LOW(-@1)
                 	SBCI R27,HIGH(-@1)
                 	ST   X+,R30
                 	ST   X,R31
                 	.ENDM
                 
                 	.MACRO __PUTD1PMN
                 	LDS  R26,@0
                 	LDS  R27,@0+1
                 	SUBI R26,LOW(-@1)
                 	SBCI R27,HIGH(-@1)
                 	CALL __PUTDP1
                 	.ENDM
                 
                 	.MACRO __PUTB1PMNS
                 	LDS  R26,@0
                 	LDS  R27,@0+1
                 	ADIW R26,@1
                 	ST   X,R30
                 	.ENDM
                 
                 	.MACRO __PUTW1PMNS
                 	LDS  R26,@0
                 	LDS  R27,@0+1
                 	ADIW R26,@1
                 	ST   X+,R30
                 	ST   X,R31
                 	.ENDM
                 
                 	.MACRO __PUTD1PMNS
                 	LDS  R26,@0
                 	LDS  R27,@0+1
                 	ADIW R26,@1
                 	CALL __PUTDP1
                 	.ENDM
                 
                 	.MACRO __PUTB1RN
                 	MOVW R26,R@0
                 	SUBI R26,LOW(-@1)
                 	SBCI R27,HIGH(-@1)
                 	ST   X,R30
                 	.ENDM
                 
                 	.MACRO __PUTW1RN
                 	MOVW R26,R@0
                 	SUBI R26,LOW(-@1)
                 	SBCI R27,HIGH(-@1)
                 	ST   X+,R30
                 	ST   X,R31
                 	.ENDM
                 
                 	.MACRO __PUTD1RN
                 	MOVW R26,R@0
                 	SUBI R26,LOW(-@1)
                 	SBCI R27,HIGH(-@1)
                 	CALL __PUTDP1
                 	.ENDM
                 
                 	.MACRO __PUTB1RNS
                 	MOVW R26,R@0
                 	ADIW R26,@1
                 	ST   X,R30
                 	.ENDM
                 
                 	.MACRO __PUTW1RNS
                 	MOVW R26,R@0
                 	ADIW R26,@1
                 	ST   X+,R30
                 	ST   X,R31
                 	.ENDM
                 
                 	.MACRO __PUTD1RNS
                 	MOVW R26,R@0
                 	ADIW R26,@1
                 	CALL __PUTDP1
                 	.ENDM
                 
                 	.MACRO __PUTB1RON
                 	MOV  R26,R@0
                 	MOV  R27,R@1
                 	SUBI R26,LOW(-@2)
                 	SBCI R27,HIGH(-@2)
                 	ST   X,R30
                 	.ENDM
                 
                 	.MACRO __PUTW1RON
                 	MOV  R26,R@0
                 	MOV  R27,R@1
                 	SUBI R26,LOW(-@2)
                 	SBCI R27,HIGH(-@2)
                 	ST   X+,R30
                 	ST   X,R31
                 	.ENDM
                 
                 	.MACRO __PUTD1RON
                 	MOV  R26,R@0
                 	MOV  R27,R@1
                 	SUBI R26,LOW(-@2)
                 	SBCI R27,HIGH(-@2)
                 	CALL __PUTDP1
                 	.ENDM
                 
                 	.MACRO __PUTB1RONS
                 	MOV  R26,R@0
                 	MOV  R27,R@1
                 	ADIW R26,@2
                 	ST   X,R30
                 	.ENDM
                 
                 	.MACRO __PUTW1RONS
                 	MOV  R26,R@0
                 	MOV  R27,R@1
                 	ADIW R26,@2
                 	ST   X+,R30
                 	ST   X,R31
                 	.ENDM
                 
                 	.MACRO __PUTD1RONS
                 	MOV  R26,R@0
                 	MOV  R27,R@1
                 	ADIW R26,@2
                 	CALL __PUTDP1
                 	.ENDM
                 
                 
                 	.MACRO __GETB1SX
                 	MOVW R30,R28
                 	SUBI R30,LOW(-@0)
                 	SBCI R31,HIGH(-@0)
                 	LD   R30,Z
                 	.ENDM
                 
                 	.MACRO __GETB1HSX
                 	MOVW R30,R28
                 	SUBI R30,LOW(-@0)
                 	SBCI R31,HIGH(-@0)
                 	LD   R31,Z
                 	.ENDM
                 
                 	.MACRO __GETW1SX
                 	MOVW R30,R28
                 	SUBI R30,LOW(-@0)
                 	SBCI R31,HIGH(-@0)
                 	LD   R0,Z+
                 	LD   R31,Z
                 	MOV  R30,R0
                 	.ENDM
                 
                 	.MACRO __GETD1SX
                 	MOVW R30,R28
                 	SUBI R30,LOW(-@0)
                 	SBCI R31,HIGH(-@0)
                 	LD   R0,Z+
                 	LD   R1,Z+
                 	LD   R22,Z+
                 	LD   R23,Z
                 	MOVW R30,R0
                 	.ENDM
                 
                 	.MACRO __GETB2SX
                 	MOVW R26,R28
                 	SUBI R26,LOW(-@0)
                 	SBCI R27,HIGH(-@0)
                 	LD   R26,X
                 	.ENDM
                 
                 	.MACRO __GETW2SX
                 	MOVW R26,R28
                 	SUBI R26,LOW(-@0)
                 	SBCI R27,HIGH(-@0)
                 	LD   R0,X+
                 	LD   R27,X
                 	MOV  R26,R0
                 	.ENDM
                 
                 	.MACRO __GETD2SX
                 	MOVW R26,R28
                 	SUBI R26,LOW(-@0)
                 	SBCI R27,HIGH(-@0)
                 	LD   R0,X+
                 	LD   R1,X+
                 	LD   R24,X+
                 	LD   R25,X
                 	MOVW R26,R0
                 	.ENDM
                 
                 	.MACRO __GETBRSX
                 	MOVW R30,R28
                 	SUBI R30,LOW(-@1)
                 	SBCI R31,HIGH(-@1)
                 	LD   R@0,Z
                 	.ENDM
                 
                 	.MACRO __GETWRSX
                 	MOVW R30,R28
                 	SUBI R30,LOW(-@2)
                 	SBCI R31,HIGH(-@2)
                 	LD   R@0,Z+
                 	LD   R@1,Z
                 	.ENDM
                 
                 	.MACRO __GETBRSX2
                 	MOVW R26,R28
                 	SUBI R26,LOW(-@1)
                 	SBCI R27,HIGH(-@1)
                 	LD   R@0,X
                 	.ENDM
                 
                 	.MACRO __GETWRSX2
                 	MOVW R26,R28
                 	SUBI R26,LOW(-@2)
                 	SBCI R27,HIGH(-@2)
                 	LD   R@0,X+
                 	LD   R@1,X
                 	.ENDM
                 
                 	.MACRO __LSLW8SX
                 	MOVW R30,R28
                 	SUBI R30,LOW(-@0)
                 	SBCI R31,HIGH(-@0)
                 	LD   R31,Z
                 	CLR  R30
                 	.ENDM
                 
                 	.MACRO __PUTB1SX
                 	MOVW R26,R28
                 	SUBI R26,LOW(-@0)
                 	SBCI R27,HIGH(-@0)
                 	ST   X,R30
                 	.ENDM
                 
                 	.MACRO __PUTW1SX
                 	MOVW R26,R28
                 	SUBI R26,LOW(-@0)
                 	SBCI R27,HIGH(-@0)
                 	ST   X+,R30
                 	ST   X,R31
                 	.ENDM
                 
                 	.MACRO __PUTD1SX
                 	MOVW R26,R28
                 	SUBI R26,LOW(-@0)
                 	SBCI R27,HIGH(-@0)
                 	ST   X+,R30
                 	ST   X+,R31
                 	ST   X+,R22
                 	ST   X,R23
                 	.ENDM
                 
                 	.MACRO __CLRW1SX
                 	MOVW R26,R28
                 	SUBI R26,LOW(-@0)
                 	SBCI R27,HIGH(-@0)
                 	ST   X+,R30
                 	ST   X,R30
                 	.ENDM
                 
                 	.MACRO __CLRD1SX
                 	MOVW R26,R28
                 	SUBI R26,LOW(-@0)
                 	SBCI R27,HIGH(-@0)
                 	ST   X+,R30
                 	ST   X+,R30
                 	ST   X+,R30
                 	ST   X,R30
                 	.ENDM
                 
                 	.MACRO __PUTB2SX
                 	MOVW R30,R28
                 	SUBI R30,LOW(-@0)
                 	SBCI R31,HIGH(-@0)
                 	ST   Z,R26
                 	.ENDM
                 
                 	.MACRO __PUTW2SX
                 	MOVW R30,R28
                 	SUBI R30,LOW(-@0)
                 	SBCI R31,HIGH(-@0)
                 	ST   Z+,R26
                 	ST   Z,R27
                 	.ENDM
                 
                 	.MACRO __PUTD2SX
                 	MOVW R30,R28
                 	SUBI R30,LOW(-@0)
                 	SBCI R31,HIGH(-@0)
                 	ST   Z+,R26
                 	ST   Z+,R27
                 	ST   Z+,R24
                 	ST   Z,R25
                 	.ENDM
                 
                 	.MACRO __PUTBSRX
                 	MOVW R30,R28
                 	SUBI R30,LOW(-@1)
                 	SBCI R31,HIGH(-@1)
                 	ST   Z,R@0
                 	.ENDM
                 
                 	.MACRO __PUTWSRX
                 	MOVW R30,R28
                 	SUBI R30,LOW(-@2)
                 	SBCI R31,HIGH(-@2)
                 	ST   Z+,R@0
                 	ST   Z,R@1
                 	.ENDM
                 
                 	.MACRO __PUTB1SNX
                 	MOVW R26,R28
                 	SUBI R26,LOW(-@0)
                 	SBCI R27,HIGH(-@0)
                 	LD   R0,X+
                 	LD   R27,X
                 	MOV  R26,R0
                 	SUBI R26,LOW(-@1)
                 	SBCI R27,HIGH(-@1)
                 	ST   X,R30
                 	.ENDM
                 
                 	.MACRO __PUTW1SNX
                 	MOVW R26,R28
                 	SUBI R26,LOW(-@0)
                 	SBCI R27,HIGH(-@0)
                 	LD   R0,X+
                 	LD   R27,X
                 	MOV  R26,R0
                 	SUBI R26,LOW(-@1)
                 	SBCI R27,HIGH(-@1)
                 	ST   X+,R30
                 	ST   X,R31
                 	.ENDM
                 
                 	.MACRO __PUTD1SNX
                 	MOVW R26,R28
                 	SUBI R26,LOW(-@0)
                 	SBCI R27,HIGH(-@0)
                 	LD   R0,X+
                 	LD   R27,X
                 	MOV  R26,R0
                 	SUBI R26,LOW(-@1)
                 	SBCI R27,HIGH(-@1)
                 	ST   X+,R30
                 	ST   X+,R31
                 	ST   X+,R22
                 	ST   X,R23
                 	.ENDM
                 
                 	.MACRO __MULBRR
                 	MULS R@0,R@1
                 	MOVW R30,R0
                 	.ENDM
                 
                 	.MACRO __MULBRRU
                 	MUL  R@0,R@1
                 	MOVW R30,R0
                 	.ENDM
                 
                 	.MACRO __MULBRR0
                 	MULS R@0,R@1
                 	.ENDM
                 
                 	.MACRO __MULBRRU0
                 	MUL  R@0,R@1
                 	.ENDM
                 
                 	.MACRO __MULBNWRU
                 	LDI  R26,@2
                 	MUL  R26,R@0
                 	MOVW R30,R0
                 	MUL  R26,R@1
                 	ADD  R31,R0
                 	.ENDM
                 
                 ;GPIOR0 INITIALIZATION VALUE
                 	.EQU __GPIOR0_INIT=0x00
                 
                 	.CSEG
                 	.ORG 0x00
                 
                 ;START OF CODE MARKER
                 __START_OF_CODE:
                 
                 ;INTERRUPT VECTORS
000000 940c 06cc 	JMP  __RESET
000002 940c 0000 	JMP  0x00
000004 940c 0000 	JMP  0x00
000006 940c 0000 	JMP  0x00
000008 940c 0000 	JMP  0x00
00000a 940c 0000 	JMP  0x00
00000c 940c 0000 	JMP  0x00
00000e 940c 0000 	JMP  0x00
000010 940c 0000 	JMP  0x00
000012 940c 0000 	JMP  0x00
000014 940c 0000 	JMP  0x00
000016 940c 0000 	JMP  0x00
000018 940c 0000 	JMP  0x00
00001a 940c 0000 	JMP  0x00
00001c 940c 0000 	JMP  0x00
00001e 940c 0000 	JMP  0x00
000020 940c 0000 	JMP  0x00
000022 940c 0000 	JMP  0x00
000024 940c 0000 	JMP  0x00
000026 940c 0000 	JMP  0x00
000028 940c 0000 	JMP  0x00
00002a 940c 0000 	JMP  0x00
00002c 940c 0000 	JMP  0x00
00002e 940c 0000 	JMP  0x00
000030 940c 0000 	JMP  0x00
000032 940c 0000 	JMP  0x00
                 
                 _font5x7:
000034 0705
000035 6020
000036 0000
000037 0000      	.DB  0x5,0x7,0x20,0x60,0x0,0x0,0x0,0x0
000038 0000
000039 5f00
00003a 0000
00003b 0700      	.DB  0x0,0x0,0x0,0x5F,0x0,0x0,0x0,0x7
00003c 0700
00003d 1400
00003e 147f
00003f 147f      	.DB  0x0,0x7,0x0,0x14,0x7F,0x14,0x7F,0x14
000040 2a24
000041 2a7f
000042 2312
000043 0813      	.DB  0x24,0x2A,0x7F,0x2A,0x12,0x23,0x13,0x8
000044 6264
000045 4936
000046 2255
000047 0050      	.DB  0x64,0x62,0x36,0x49,0x55,0x22,0x50,0x0
000048 0305
000049 0000
00004a 1c00
00004b 4122      	.DB  0x5,0x3,0x0,0x0,0x0,0x1C,0x22,0x41
00004c 0000
00004d 2241
00004e 001c
00004f 2a08      	.DB  0x0,0x0,0x41,0x22,0x1C,0x0,0x8,0x2A
000050 2a1c
000051 0808
000052 3e08
000053 0808      	.DB  0x1C,0x2A,0x8,0x8,0x8,0x3E,0x8,0x8
000054 5000
000055 0030
000056 0800
000057 0808      	.DB  0x0,0x50,0x30,0x0,0x0,0x8,0x8,0x8
000058 0808
000059 3000
00005a 0030
00005b 2000      	.DB  0x8,0x8,0x0,0x30,0x30,0x0,0x0,0x20
00005c 0810
00005d 0204
00005e 513e
00005f 4549      	.DB  0x10,0x8,0x4,0x2,0x3E,0x51,0x49,0x45
000060 003e
000061 7f42
000062 0040
000063 6142      	.DB  0x3E,0x0,0x42,0x7F,0x40,0x0,0x42,0x61
000064 4951
000065 2146
000066 4541
000067 314b      	.DB  0x51,0x49,0x46,0x21,0x41,0x45,0x4B,0x31
000068 1418
000069 7f12
00006a 2710
00006b 4545      	.DB  0x18,0x14,0x12,0x7F,0x10,0x27,0x45,0x45
00006c 3945
00006d 4a3c
00006e 4949
00006f 0130      	.DB  0x45,0x39,0x3C,0x4A,0x49,0x49,0x30,0x1
000070 0971
000071 0305
000072 4936
000073 4949      	.DB  0x71,0x9,0x5,0x3,0x36,0x49,0x49,0x49
000074 0636
000075 4949
000076 1e29
000077 3600      	.DB  0x36,0x6,0x49,0x49,0x29,0x1E,0x0,0x36
000078 0036
000079 0000
00007a 3656
00007b 0000      	.DB  0x36,0x0,0x0,0x0,0x56,0x36,0x0,0x0
00007c 0800
00007d 2214
00007e 1441
00007f 1414      	.DB  0x0,0x8,0x14,0x22,0x41,0x14,0x14,0x14
000080 1414
000081 2241
000082 0814
000083 0200      	.DB  0x14,0x14,0x41,0x22,0x14,0x8,0x0,0x2
000084 5101
000085 0609
000086 4932
000087 4179      	.DB  0x1,0x51,0x9,0x6,0x32,0x49,0x79,0x41
000088 7e3e
000089 1111
00008a 7e11
00008b 497f      	.DB  0x3E,0x7E,0x11,0x11,0x11,0x7E,0x7F,0x49
00008c 4949
00008d 3e36
00008e 4141
00008f 2241      	.DB  0x49,0x49,0x36,0x3E,0x41,0x41,0x41,0x22
000090 417f
000091 2241
000092 7f1c
000093 4949      	.DB  0x7F,0x41,0x41,0x22,0x1C,0x7F,0x49,0x49
000094 4149
000095 097f
000096 0109
000097 3e01      	.DB  0x49,0x41,0x7F,0x9,0x9,0x1,0x1,0x3E
000098 4141
000099 3251
00009a 087f
00009b 0808      	.DB  0x41,0x41,0x51,0x32,0x7F,0x8,0x8,0x8
00009c 007f
00009d 7f41
00009e 0041
00009f 4020      	.DB  0x7F,0x0,0x41,0x7F,0x41,0x0,0x20,0x40
0000a0 3f41
0000a1 7f01
0000a2 1408
0000a3 4122      	.DB  0x41,0x3F,0x1,0x7F,0x8,0x14,0x22,0x41
0000a4 407f
0000a5 4040
0000a6 7f40
0000a7 0402      	.DB  0x7F,0x40,0x40,0x40,0x40,0x7F,0x2,0x4
0000a8 7f02
0000a9 047f
0000aa 1008
0000ab 3e7f      	.DB  0x2,0x7F,0x7F,0x4,0x8,0x10,0x7F,0x3E
0000ac 4141
0000ad 3e41
0000ae 097f
0000af 0909      	.DB  0x41,0x41,0x41,0x3E,0x7F,0x9,0x9,0x9
0000b0 3e06
0000b1 5141
0000b2 5e21
0000b3 097f      	.DB  0x6,0x3E,0x41,0x51,0x21,0x5E,0x7F,0x9
0000b4 2919
0000b5 4646
0000b6 4949
0000b7 3149      	.DB  0x19,0x29,0x46,0x46,0x49,0x49,0x49,0x31
0000b8 0101
0000b9 017f
0000ba 3f01
0000bb 4040      	.DB  0x1,0x1,0x7F,0x1,0x1,0x3F,0x40,0x40
0000bc 3f40
0000bd 201f
0000be 2040
0000bf 7f1f      	.DB  0x40,0x3F,0x1F,0x20,0x40,0x20,0x1F,0x7F
0000c0 1820
0000c1 7f20
0000c2 1463
0000c3 1408      	.DB  0x20,0x18,0x20,0x7F,0x63,0x14,0x8,0x14
0000c4 0363
0000c5 7804
0000c6 0304
0000c7 5161      	.DB  0x63,0x3,0x4,0x78,0x4,0x3,0x61,0x51
0000c8 4549
0000c9 0043
0000ca 7f00
0000cb 4141      	.DB  0x49,0x45,0x43,0x0,0x0,0x7F,0x41,0x41
0000cc 0402
0000cd 1008
0000ce 4120
0000cf 7f41      	.DB  0x2,0x4,0x8,0x10,0x20,0x41,0x41,0x7F
0000d0 0000
0000d1 0204
0000d2 0201
0000d3 4004      	.DB  0x0,0x0,0x4,0x2,0x1,0x2,0x4,0x40
0000d4 4040
0000d5 4040
0000d6 0100
0000d7 0402      	.DB  0x40,0x40,0x40,0x40,0x0,0x1,0x2,0x4
0000d8 2000
0000d9 5454
0000da 7854
0000db 487f      	.DB  0x0,0x20,0x54,0x54,0x54,0x78,0x7F,0x48
0000dc 4444
0000dd 3838
0000de 4444
0000df 2044      	.DB  0x44,0x44,0x38,0x38,0x44,0x44,0x44,0x20
0000e0 4438
0000e1 4844
0000e2 387f
0000e3 5454      	.DB  0x38,0x44,0x44,0x48,0x7F,0x38,0x54,0x54
0000e4 1854
0000e5 7e08
0000e6 0109
0000e7 0802      	.DB  0x54,0x18,0x8,0x7E,0x9,0x1,0x2,0x8
0000e8 5414
0000e9 3c54
0000ea 087f
0000eb 0404      	.DB  0x14,0x54,0x54,0x3C,0x7F,0x8,0x4,0x4
0000ec 0078
0000ed 7d44
0000ee 0040
0000ef 4020      	.DB  0x78,0x0,0x44,0x7D,0x40,0x0,0x20,0x40
0000f0 3d44
0000f1 0000
0000f2 107f
0000f3 4428      	.DB  0x44,0x3D,0x0,0x0,0x7F,0x10,0x28,0x44
0000f4 4100
0000f5 407f
0000f6 7c00
0000f7 1804      	.DB  0x0,0x41,0x7F,0x40,0x0,0x7C,0x4,0x18
0000f8 7804
0000f9 087c
0000fa 0404
0000fb 3878      	.DB  0x4,0x78,0x7C,0x8,0x4,0x4,0x78,0x38
0000fc 4444
0000fd 3844
0000fe 147c
0000ff 1414      	.DB  0x44,0x44,0x44,0x38,0x7C,0x14,0x14,0x14
000100 0808
000101 1414
000102 7c18
000103 087c      	.DB  0x8,0x8,0x14,0x14,0x18,0x7C,0x7C,0x8
000104 0404
000105 4808
000106 5454
000107 2054      	.DB  0x4,0x4,0x8,0x48,0x54,0x54,0x54,0x20
000108 3f04
000109 4044
00010a 3c20
00010b 4040      	.DB  0x4,0x3F,0x44,0x40,0x20,0x3C,0x40,0x40
00010c 7c20
00010d 201c
00010e 2040
00010f 3c1c      	.DB  0x20,0x7C,0x1C,0x20,0x40,0x20,0x1C,0x3C
000110 3040
000111 3c40
000112 2844
000113 2810      	.DB  0x40,0x30,0x40,0x3C,0x44,0x28,0x10,0x28
000114 0c44
000115 5050
000116 3c50
000117 6444      	.DB  0x44,0xC,0x50,0x50,0x50,0x3C,0x44,0x64
000118 4c54
000119 0044
00011a 3608
00011b 0041      	.DB  0x54,0x4C,0x44,0x0,0x8,0x36,0x41,0x0
00011c 0000
00011d 007f
00011e 0000
00011f 3641      	.DB  0x0,0x0,0x7F,0x0,0x0,0x0,0x41,0x36
000120 0008
000121 0102
000122 0402
000123 7f02      	.DB  0x8,0x0,0x2,0x1,0x2,0x4,0x2,0x7F
000124 4141
000125 7f41      	.DB  0x41,0x41,0x41,0x7F
                 _imagen1:
000126 0054
000127 0030
000128 0000
000129 0000      	.DB  0x54,0x0,0x30,0x0,0x0,0x0,0x0,0x0
00012a 0000
00012b 0000
00012c 0000
00012d 0000      	.DB  0x0,0x0,0x0,0x0,0x0,0x0,0x0,0x0
00012e 0000
00012f 0000
000130 3c00
000131 ec3c      	.DB  0x0,0x0,0x0,0x0,0x0,0x3C,0x3C,0xEC
000132 b0fc
000133 b0f0
000134 3030
000135 b0b0      	.DB  0xFC,0xB0,0xF0,0xB0,0x30,0x30,0xB0,0xB0
000136 30b0
000137 b0b0
000138 ecec
000139 3c3c      	.DB  0xB0,0x30,0xB0,0xB0,0xEC,0xEC,0x3C,0x3C
00013a 0000
00013b 0000
00013c 0000
00013d 0000      	.DB  0x0,0x0,0x0,0x0,0x0,0x0,0x0,0x0
00013e 0000
00013f 0000
000140 0000
000141 0000      	.DB  0x0,0x0,0x0,0x0,0x0,0x0,0x0,0x0
000142 0000
000143 0000
000144 0000
000145 0000      	.DB  0x0,0x0,0x0,0x0,0x0,0x0,0x0,0x0
000146 0000
000147 0000
000148 0000
000149 0000      	.DB  0x0,0x0,0x0,0x0,0x0,0x0,0x0,0x0
00014a 0000
00014b 0000
00014c 0000
00014d 0000      	.DB  0x0,0x0,0x0,0x0,0x0,0x0,0x0,0x0
00014e 0000
00014f 0000
000150 0000
000151 0000      	.DB  0x0,0x0,0x0,0x0,0x0,0x0,0x0,0x0
000152 0000
000153 0000
000154 0000
000155 0000      	.DB  0x0,0x0,0x0,0x0,0x0,0x0,0x0,0x0
000156 0000
000157 0000
000158 0000
000159 8000      	.DB  0x0,0x0,0x0,0x0,0x0,0x0,0x0,0x80
00015a ff80
00015b baff
00015c 76b8
00015d fcff      	.DB  0x80,0xFF,0xFF,0xBA,0xB8,0x76,0xFF,0xFC
00015e fefa
00015f fbff
000160 ffff
000161 dbff      	.DB  0xFA,0xFE,0xFF,0xFB,0xFF,0xFF,0xFF,0xDB
000162 fdfe
000163 ffff
000164 8080
000165 0000      	.DB  0xFE,0xFD,0xFF,0xFF,0x80,0x80,0x0,0x0
000166 0000
000167 0000
000168 0000
000169 9c00      	.DB  0x0,0x0,0x0,0x0,0x0,0x0,0x0,0x9C
00016a ff9e
00016b 3fff
00016c bebf
00016d ecfc      	.DB  0x9E,0xFF,0xFF,0x3F,0xBF,0xBE,0xFC,0xEC
00016e ecec
00016f eeec
000170 b8f8
000171 f8f8      	.DB  0xEC,0xEC,0xEC,0xEE,0xF8,0xB8,0xF8,0xF8
000172 e0e0
000173 e0e0
000174 8080
000175 0000      	.DB  0xE0,0xE0,0xE0,0xE0,0x80,0x80,0x0,0x0
000176 0000
000177 0000
000178 0000
000179 0000      	.DB  0x0,0x0,0x0,0x0,0x0,0x0,0x0,0x0
00017a 0000
00017b 0000
00017c 0000
00017d 0000      	.DB  0x0,0x0,0x0,0x0,0x0,0x0,0x0,0x0
00017e 0000
00017f 0000
000180 0000
000181 0000      	.DB  0x0,0x0,0x0,0x0,0x0,0x0,0x0,0x0
000182 e000
000183 ffe0
000184 fd1f
000185 fffa      	.DB  0x0,0xE0,0xE0,0xFF,0x1F,0xFD,0xFA,0xFF
000186 fdff
000187 ffff
000188 dfff
000189 dfdf      	.DB  0xFF,0xFD,0xFF,0xFF,0xFF,0xDF,0xDF,0xDF
00018a e7ff
00018b fdff
00018c feff
00018d ffff      	.DB  0xFF,0xE7,0xFF,0xFD,0xFF,0xFE,0xFF,0xFF
00018e ffff
00018f 6060
000190 6060
000191 3898      	.DB  0xFF,0xFF,0x60,0x60,0x60,0x60,0x98,0x38
000192 5e98
000193 f7e6
000194 fd79
000195 f6fa      	.DB  0x98,0x5E,0xE6,0xF7,0x79,0xFD,0xFA,0xF6
000196 fff7
000197 ffff
000198 ffff
000199 efff      	.DB  0xF7,0xFF,0xFF,0xFF,0xFF,0xFF,0xFF,0xEF
00019a ffff
00019b fdff
00019c ffff
00019d fffe      	.DB  0xFF,0xFF,0xFF,0xFD,0xFF,0xFF,0xFE,0xFF
00019e fffd
00019f fefe
0001a0 20f8
0001a1 0000      	.DB  0xFD,0xFF,0xFE,0xFE,0xF8,0x20,0x0,0x0
0001a2 0000
0001a3 0000
0001a4 0000
0001a5 0000      	.DB  0x0,0x0,0x0,0x0,0x0,0x0,0x0,0x0
0001a6 0000
0001a7 0000
0001a8 0000
0001a9 0000      	.DB  0x0,0x0,0x0,0x0,0x0,0x0,0x0,0x0
0001aa 0000
0001ab e000
0001ac fff0
0001ad ffdf      	.DB  0x0,0x0,0x0,0xE0,0xF0,0xFF,0xDF,0xFF
0001ae fffb
0001af ffff
0001b0 ffff
0001b1 ffff      	.DB  0xFB,0xFF,0xFF,0xFF,0xFF,0xFF,0xFF,0xFF
0001b2 ffff
0001b3 ffff
0001b4 ffff
0001b5 5fff      	.DB  0xFF,0xFF,0xFF,0xFF,0xFF,0xFF,0xFF,0x5F
0001b6 975f
0001b7 b949
0001b8 ada9
0001b9 ecad      	.DB  0x5F,0x97,0x49,0xB9,0xA9,0xAD,0xAD,0xEC
0001ba d3f6
0001bb f393
0001bc fdfd
0001bd ffff      	.DB  0xF6,0xD3,0x93,0xF3,0xFD,0xFD,0xFF,0xFF
0001be fff7
0001bf ffff
0001c0 ffff
0001c1 ffff      	.DB  0xF7,0xFF,0xFF,0xFF,0xFF,0xFF,0xFF,0xFF
0001c2 ffff
0001c3 ffff
0001c4 ffff
0001c5 ffff      	.DB  0xFF,0xFF,0xFF,0xFF,0xFF,0xFF,0xFF,0xFF
0001c6 3f3f
0001c7 0f0f
0001c8 0f0f
0001c9 0303      	.DB  0x3F,0x3F,0xF,0xF,0xF,0xF,0x3,0x3
0001ca 0000
0001cb 0000
0001cc 0000
0001cd 0000      	.DB  0x0,0x0,0x0,0x0,0x0,0x0,0x0,0x0
0001ce 0000
0001cf 0000
0001d0 0000
0001d1 0000      	.DB  0x0,0x0,0x0,0x0,0x0,0x0,0x0,0x0
0001d2 0000
0001d3 0000
0001d4 0000
0001d5 1f00      	.DB  0x0,0x0,0x0,0x0,0x0,0x0,0x0,0x1F
0001d6 ff3f
0001d7 fffe
0001d8 ffff
0001d9 ffff      	.DB  0x3F,0xFF,0xFE,0xFF,0xFF,0xFF,0xFF,0xFF
0001da 7fff
0001db 7f7f
0001dc 7f7f
0001dd ffff      	.DB  0xFF,0x7F,0x7F,0x7F,0x7F,0x7F,0xFF,0xFF
0001de c0ff
0001df fefe
0001e0 fdf9
0001e1 7cbe      	.DB  0xFF,0xC0,0xFE,0xFE,0xF9,0xFD,0xBE,0x7C
0001e2 fffe
0001e3 ffff
0001e4 fefe
0001e5 ffff      	.DB  0xFE,0xFF,0xFF,0xFF,0xFE,0xFE,0xFF,0xFF
0001e6 ffff
0001e7 ffff
0001e8 ffff
0001e9 ffff      	.DB  0xFF,0xFF,0xFF,0xFF,0xFF,0xFF,0xFF,0xFF
0001ea 7fff
0001eb 3f7f
0001ec fe3f
0001ed ffff      	.DB  0xFF,0x7F,0x7F,0x3F,0x3F,0xFE,0xFF,0xFF
0001ee ffff
0001ef 0303
0001f0 0000
0001f1 0000      	.DB  0xFF,0xFF,0x3,0x3,0x0,0x0,0x0,0x0
0001f2 0000
0001f3 0000
0001f4 0000
0001f5 0000      	.DB  0x0,0x0,0x0,0x0,0x0,0x0,0x0,0x0
0001f6 0000
0001f7 0000
0001f8 0000
0001f9 0000      	.DB  0x0,0x0,0x0,0x0,0x0,0x0,0x0,0x0
0001fa 0000
0001fb 0000
0001fc 0000
0001fd 0000      	.DB  0x0,0x0,0x0,0x0,0x0,0x0,0x0,0x0
0001fe 0000
0001ff 0000
000200 0100
000201 0101      	.DB  0x0,0x0,0x0,0x0,0x0,0x1,0x1,0x1
000202 0101
000203 0101
000204 0001
000205 0000      	.DB  0x1,0x1,0x1,0x1,0x1,0x0,0x0,0x0
000206 0000
000207 0702
000208 1f1f
000209 7f7f      	.DB  0x0,0x0,0x2,0x7,0x1F,0x1F,0x7F,0x7F
00020a 7f7f
00020b 7f7f
00020c 7f7f
00020d 7f7f      	.DB  0x7F,0x7F,0x7F,0x7F,0x7F,0x7F,0x7F,0x7F
00020e 7f7f
00020f 7f7f
000210 7f7f
000211 7f7f      	.DB  0x7F,0x7F,0x7F,0x7F,0x7F,0x7F,0x7F,0x7F
000212 797f
000213 0179
000214 0001
000215 0000      	.DB  0x7F,0x79,0x79,0x1,0x1,0x0,0x0,0x0
000216 0700
000217 1f0f
000218 1f1f
000219 1c1e      	.DB  0x0,0x7,0xF,0x1F,0x1F,0x1F,0x1E,0x1C
00021a 0000
00021b 0000
00021c 0000
00021d 0000      	.DB  0x0,0x0,0x0,0x0,0x0,0x0,0x0,0x0
00021e 0000
00021f 0000
000220 0000
000221 0000      	.DB  0x0,0x0,0x0,0x0,0x0,0x0,0x0,0x0
000222 0000
000223 0000      	.DB  0x0,0x0,0x0,0x0
                 _imagen11:
000224 0054
000225 0030
000226 0000
000227 8000      	.DB  0x54,0x0,0x30,0x0,0x0,0x0,0x0,0x80
000228 6080
000229 6060
00022a 8080
00022b 0000      	.DB  0x80,0x60,0x60,0x60,0x80,0x80,0x0,0x0
00022c 0000
00022d 8000
00022e 6060
00022f 0080      	.DB  0x0,0x0,0x0,0x80,0x60,0x60,0x80,0x0
000230 e000
000231 e0e0
000232 0000
000233 0000      	.DB  0x0,0xE0,0xE0,0xE0,0x0,0x0,0x0,0x0
000234 e000
000235 e0e0
000236 0000
000237 0000      	.DB  0x0,0xE0,0xE0,0xE0,0x0,0x0,0x0,0x0
000238 60e0
000239 6060
00023a 6060
00023b 0000      	.DB  0xE0,0x60,0x60,0x60,0x60,0x60,0x0,0x0
00023c 80e0
00023d 0080
00023e 0000
00023f e0e0      	.DB  0xE0,0x80,0x80,0x0,0x0,0x0,0xE0,0xE0
000240 0000
000241 e000
000242 60e0
000243 6060      	.DB  0x0,0x0,0x0,0xE0,0xE0,0x60,0x60,0x60
000244 0060
000245 8000
000246 6080
000247 6060      	.DB  0x60,0x0,0x0,0x80,0x80,0x60,0x60,0x60
000248 0080
000249 6000
00024a 6060
00024b e0e0      	.DB  0x80,0x0,0x0,0x60,0x60,0x60,0xE0,0xE0
00024c 6060
00024d 0060
00024e 0000
00024f 0000      	.DB  0x60,0x60,0x60,0x0,0x0,0x0,0x0,0x0
000250 0000
000251 7f00
000252 807f
000253 8c8c      	.DB  0x0,0x0,0x0,0x7F,0x7F,0x80,0x8C,0x8C
000254 fcfc
000255 e000
000256 1ce0
000257 131c      	.DB  0xFC,0xFC,0x0,0xE0,0xE0,0x1C,0x1C,0x13
000258 1010
000259 e01f
00025a ffe0
00025b 00ff      	.DB  0x10,0x10,0x1F,0xE0,0xE0,0xFF,0xFF,0x0
00025c 7f7f
00025d 7f80
00025e 007f
00025f ff00      	.DB  0x7F,0x7F,0x80,0x7F,0x7F,0x0,0x0,0xFF
000260 0000
000261 0000
000262 8cff
000263 8c8c      	.DB  0x0,0x0,0x0,0x0,0xFF,0x8C,0x8C,0x8C
000264 8080
000265 0000
000266 03ff
000267 0c03      	.DB  0x80,0x80,0x0,0x0,0xFF,0x3,0x3,0xC
000268 7070
000269 ffff
00026a 0000
00026b ff00      	.DB  0x70,0x70,0xFF,0xFF,0x0,0x0,0x0,0xFF
00026c 8cff
00026d 8c8c
00026e 0080
00026f 6300      	.DB  0xFF,0x8C,0x8C,0x8C,0x80,0x0,0x0,0x63
000270 8c63
000271 8c8c
000272 0070
000273 0000      	.DB  0x63,0x8C,0x8C,0x8C,0x70,0x0,0x0,0x0
000274 0000
000275 ffff
000276 0000
000277 0000      	.DB  0x0,0x0,0xFF,0xFF,0x0,0x0,0x0,0x0
000278 0000
000279 0000
00027a 0000
00027b 0000      	.DB  0x0,0x0,0x0,0x0,0x0,0x0,0x0,0x0
00027c 0100
00027d 0101
00027e 0101
00027f 0100      	.DB  0x0,0x1,0x1,0x1,0x1,0x1,0x0,0x1
000280 0001
000281 0000
000282 0000
000283 0100      	.DB  0x1,0x0,0x0,0x0,0x0,0x0,0x0,0x1
000284 0101
000285 0001
000286 0000
000287 0001      	.DB  0x1,0x1,0x1,0x0,0x0,0x0,0x1,0x0
000288 0000
000289 0100
00028a 0000
00028b 0000      	.DB  0x0,0x0,0x0,0x1,0x0,0x0,0x0,0x0
00028c 0101
00028d 0101
00028e 0101
00028f 0000      	.DB  0x1,0x1,0x1,0x1,0x1,0x1,0x0,0x0
000290 0001
000291 0000
000292 0000
000293 0101      	.DB  0x1,0x0,0x0,0x0,0x0,0x0,0x1,0x1
000294 0000
000295 0100
000296 0101
000297 0101      	.DB  0x0,0x0,0x0,0x1,0x1,0x1,0x1,0x1
000298 0001
000299 0000
00029a 0100
00029b 0101      	.DB  0x1,0x0,0x0,0x0,0x0,0x1,0x1,0x1
00029c 0000
00029d 0000
00029e 0000
00029f 0101      	.DB  0x0,0x0,0x0,0x0,0x0,0x0,0x1,0x1
0002a0 0000
0002a1 0000
0002a2 0000
0002a3 0000      	.DB  0x0,0x0,0x0,0x0,0x0,0x0,0x0,0x0
0002a4 0000
0002a5 0000
0002a6 0000
0002a7 0000      	.DB  0x0,0x0,0x0,0x0,0x0,0x0,0x0,0x0
0002a8 0000
0002a9 0000
0002aa 0000
0002ab 0000      	.DB  0x0,0x0,0x0,0x0,0x0,0x0,0x0,0x0
0002ac 0000
0002ad 0000
0002ae 0000
0002af 0000      	.DB  0x0,0x0,0x0,0x0,0x0,0x0,0x0,0x0
0002b0 0000
0002b1 0000
0002b2 0000
0002b3 0000      	.DB  0x0,0x0,0x0,0x0,0x0,0x0,0x0,0x0
0002b4 f0f0
0002b5 3030
0002b6 3030
0002b7 c030      	.DB  0xF0,0xF0,0x30,0x30,0x30,0x30,0x30,0xC0
0002b8 0000
0002b9 0000
0002ba 30c0
0002bb c030      	.DB  0x0,0x0,0x0,0x0,0xC0,0x30,0x30,0xC0
0002bc 0000
0002bd 0000
0002be 00f0
0002bf 0000      	.DB  0x0,0x0,0x0,0x0,0xF0,0x0,0x0,0x0
0002c0 0000
0002c1 0000
0002c2 0000
0002c3 0000      	.DB  0x0,0x0,0x0,0x0,0x0,0x0,0x0,0x0
0002c4 0000
0002c5 0000
0002c6 0000
0002c7 0000      	.DB  0x0,0x0,0x0,0x0,0x0,0x0,0x0,0x0
0002c8 0000
0002c9 0000
0002ca 0000
0002cb 0000      	.DB  0x0,0x0,0x0,0x0,0x0,0x0,0x0,0x0
0002cc 0000
0002cd 0000
0002ce 0000
0002cf 0000      	.DB  0x0,0x0,0x0,0x0,0x0,0x0,0x0,0x0
0002d0 0000
0002d1 0000
0002d2 0000
0002d3 0000      	.DB  0x0,0x0,0x0,0x0,0x0,0x0,0x0,0x0
0002d4 0000
0002d5 0000
0002d6 0000
0002d7 0000      	.DB  0x0,0x0,0x0,0x0,0x0,0x0,0x0,0x0
0002d8 0000
0002d9 0000
0002da 0000
0002db 0000      	.DB  0x0,0x0,0x0,0x0,0x0,0x0,0x0,0x0
0002dc 0000
0002dd 0000
0002de ffff
0002df 0606      	.DB  0x0,0x0,0x0,0x0,0xFF,0xFF,0x6,0x6
0002e0 0606
0002e1 0106
0002e2 f0f0
0002e3 0e0e      	.DB  0x6,0x6,0x6,0x1,0xF0,0xF0,0xE,0xE
0002e4 0809
0002e5 0f08
0002e6 f0f0
0002e7 0000      	.DB  0x9,0x8,0x8,0xF,0xF0,0xF0,0x0,0x0
0002e8 00ff
0002e9 0000
0002ea 0000
0002eb 0000      	.DB  0xFF,0x0,0x0,0x0,0x0,0x0,0x0,0x0
0002ec 0000
0002ed 0000
0002ee 0000
0002ef 0000      	.DB  0x0,0x0,0x0,0x0,0x0,0x0,0x0,0x0
0002f0 0000
0002f1 0000
0002f2 0000
0002f3 0000      	.DB  0x0,0x0,0x0,0x0,0x0,0x0,0x0,0x0
0002f4 0000
0002f5 0000
0002f6 0000
0002f7 0000      	.DB  0x0,0x0,0x0,0x0,0x0,0x0,0x0,0x0
0002f8 0000
0002f9 0000
0002fa 0000
0002fb 0000      	.DB  0x0,0x0,0x0,0x0,0x0,0x0,0x0,0x0
0002fc 0000
0002fd 0000
0002fe 0000
0002ff 0000      	.DB  0x0,0x0,0x0,0x0,0x0,0x0,0x0,0x0
000300 0000
000301 0000
000302 0000
000303 0000      	.DB  0x0,0x0,0x0,0x0,0x0,0x0,0x0,0x0
000304 0000
000305 0000
000306 0000
000307 0000      	.DB  0x0,0x0,0x0,0x0,0x0,0x0,0x0,0x0
000308 0000
000309 0000
00030a 0000
00030b 0000      	.DB  0x0,0x0,0x0,0x0,0x0,0x0,0x0,0x0
00030c 0000
00030d 0000
00030e 0000
00030f 0000      	.DB  0x0,0x0,0x0,0x0,0x0,0x0,0x0,0x0
000310 0000
000311 0000
000312 0000
000313 0000      	.DB  0x0,0x0,0x0,0x0,0x0,0x0,0x0,0x0
000314 0000
000315 0000
000316 0000
000317 0000      	.DB  0x0,0x0,0x0,0x0,0x0,0x0,0x0,0x0
000318 0000
000319 0000
00031a 0000
00031b 0000      	.DB  0x0,0x0,0x0,0x0,0x0,0x0,0x0,0x0
00031c 0000
00031d 0000
00031e 0000
00031f 0000      	.DB  0x0,0x0,0x0,0x0,0x0,0x0,0x0,0x0
000320 0000
000321 0000      	.DB  0x0,0x0,0x0,0x0
                 _imagen2:
000322 0054
000323 0030
000324 0000
000325 0000      	.DB  0x54,0x0,0x30,0x0,0x0,0x0,0x0,0x0
000326 0000
000327 0000
000328 0000
000329 0000      	.DB  0x0,0x0,0x0,0x0,0x0,0x0,0x0,0x0
00032a 0000
00032b 0000
00032c 0000
00032d 0000      	.DB  0x0,0x0,0x0,0x0,0x0,0x0,0x0,0x0
00032e 0000
00032f 0000
000330 0000
000331 0000      	.DB  0x0,0x0,0x0,0x0,0x0,0x0,0x0,0x0
000332 0000
000333 0000
000334 0000
000335 8080      	.DB  0x0,0x0,0x0,0x0,0x0,0x0,0x80,0x80
000336 6060
000337 f8f8
000338 e0e0
000339 8080      	.DB  0x60,0x60,0xF8,0xF8,0xE0,0xE0,0x80,0x80
00033a 0000
00033b 0000
00033c 0000
00033d 0000      	.DB  0x0,0x0,0x0,0x0,0x0,0x0,0x0,0x0
00033e 0000
00033f 0000
000340 0000
000341 0000      	.DB  0x0,0x0,0x0,0x0,0x0,0x0,0x0,0x0
000342 0000
000343 0000
000344 0000
000345 0000      	.DB  0x0,0x0,0x0,0x0,0x0,0x0,0x0,0x0
000346 0000
000347 0000
000348 0000
000349 0000      	.DB  0x0,0x0,0x0,0x0,0x0,0x0,0x0,0x0
00034a 0000
00034b 0000
00034c 0000
00034d 0000      	.DB  0x0,0x0,0x0,0x0,0x0,0x0,0x0,0x0
00034e 0000
00034f 0000
000350 0000
000351 0000      	.DB  0x0,0x0,0x0,0x0,0x0,0x0,0x0,0x0
000352 0000
000353 0000
000354 8000
000355 e080      	.DB  0x0,0x0,0x0,0x0,0x0,0x80,0x80,0xE0
000356 e0e0
000357 e0e0
000358 e0e0
000359 e0e0      	.DB  0xE0,0xE0,0xE0,0xE0,0xE0,0xE0,0xE0,0xE0
00035a e0e0
00035b 9818
00035c 9898
00035d 9898      	.DB  0xE0,0xE0,0x18,0x98,0x98,0x98,0x98,0x98
00035e 9898
00035f ffff
000360 f0e0
000361 9f9f      	.DB  0x98,0x98,0xFF,0xFF,0xE0,0xF0,0x9F,0x9F
000362 ffff
000363 ffff
000364 98f8
000365 9898      	.DB  0xFF,0xFF,0xFF,0xFF,0xF8,0x98,0x98,0x98
000366 9898
000367 9898
000368 e0e0
000369 e0e0      	.DB  0x98,0x98,0x98,0x98,0xE0,0xE0,0xE0,0xE0
00036a e0e0
00036b e0e0
00036c e0e0
00036d 80e0      	.DB  0xE0,0xE0,0xE0,0xE0,0xE0,0xE0,0xE0,0x80
00036e 0080
00036f 0000
000370 0000
000371 0000      	.DB  0x80,0x0,0x0,0x0,0x0,0x0,0x0,0x0
000372 0000
000373 0000
000374 0000
000375 0000      	.DB  0x0,0x0,0x0,0x0,0x0,0x0,0x0,0x0
000376 0000
000377 0000
000378 0000
000379 0000      	.DB  0x0,0x0,0x0,0x0,0x0,0x0,0x0,0x0
00037a 0000
00037b 0000
00037c 0000
00037d 0000      	.DB  0x0,0x0,0x0,0x0,0x0,0x0,0x0,0x0
00037e 0700
00037f 1f07
000380 1b1f
000381 1f1f      	.DB  0x0,0x7,0x7,0x1F,0x1F,0x1B,0x1F,0x1F
000382 1f1f
000383 1f1f
000384 7f6f
000385 7f7b      	.DB  0x1F,0x1F,0x1F,0x1F,0x6F,0x7F,0x7B,0x7F
000386 7f6f
000387 ffff
000388 ffff
000389 ffff      	.DB  0x6F,0x7F,0xFF,0xFF,0xFF,0xFF,0xFF,0xFF
00038a 3f3f
00038b fcff
00038c ffff
00038d ffff      	.DB  0x3F,0x3F,0xFF,0xFC,0xFF,0xFF,0xFF,0xFF
00038e efff
00038f ffff
000390 6f7f
000391 7b7f      	.DB  0xFF,0xEF,0xFF,0xFF,0x7F,0x6F,0x7F,0x7B
000392 6f7f
000393 1f7f
000394 1f1f
000395 1f1f      	.DB  0x7F,0x6F,0x7F,0x1F,0x1F,0x1F,0x1F,0x1F
000396 1b1f
000397 071f
000398 0007
000399 0000      	.DB  0x1F,0x1B,0x1F,0x7,0x7,0x0,0x0,0x0
00039a 0000
00039b 0000
00039c 0000
00039d 0000      	.DB  0x0,0x0,0x0,0x0,0x0,0x0,0x0,0x0
00039e 0000
00039f 0000
0003a0 0000
0003a1 0000      	.DB  0x0,0x0,0x0,0x0,0x0,0x0,0x0,0x0
0003a2 0000
0003a3 0000
0003a4 0000
0003a5 0000      	.DB  0x0,0x0,0x0,0x0,0x0,0x0,0x0,0x0
0003a6 0000
0003a7 0000
0003a8 0000
0003a9 0000      	.DB  0x0,0x0,0x0,0x0,0x0,0x0,0x0,0x0
0003aa 0000
0003ab 0000
0003ac 0000
0003ad 0000      	.DB  0x0,0x0,0x0,0x0,0x0,0x0,0x0,0x0
0003ae 0000
0003af 0000
0003b0 0000
0003b1 0101      	.DB  0x0,0x0,0x0,0x0,0x0,0x0,0x1,0x1
0003b2 0101
0003b3 0707
0003b4 f8f8
0003b5 bfff      	.DB  0x1,0x1,0x7,0x7,0xF8,0xF8,0xFF,0xBF
0003b6 ffff
0003b7 0f0f
0003b8 0103
0003b9 0101      	.DB  0xFF,0xFF,0xF,0xF,0x3,0x1,0x1,0x1
0003ba 0000
0003bb 0000
0003bc 0000
0003bd 0000      	.DB  0x0,0x0,0x0,0x0,0x0,0x0,0x0,0x0
0003be 0000
0003bf 0000
0003c0 0000
0003c1 0000      	.DB  0x0,0x0,0x0,0x0,0x0,0x0,0x0,0x0
0003c2 0000
0003c3 0000
0003c4 0000
0003c5 0000      	.DB  0x0,0x0,0x0,0x0,0x0,0x0,0x0,0x0
0003c6 0000
0003c7 0000
0003c8 0000
0003c9 0000      	.DB  0x0,0x0,0x0,0x0,0x0,0x0,0x0,0x0
0003ca 0000
0003cb 0000
0003cc 0000
0003cd 0000      	.DB  0x0,0x0,0x0,0x0,0x0,0x0,0x0,0x0
0003ce 0000
0003cf 0000
0003d0 0000
0003d1 0000      	.DB  0x0,0x0,0x0,0x0,0x0,0x0,0x0,0x0
0003d2 0000
0003d3 0000
0003d4 0000
0003d5 0000      	.DB  0x0,0x0,0x0,0x0,0x0,0x0,0x0,0x0
0003d6 0000
0003d7 0000
0003d8 0000
0003d9 0000      	.DB  0x0,0x0,0x0,0x0,0x0,0x0,0x0,0x0
0003da 0000
0003db 0000
0003dc c0c0
0003dd c0c0      	.DB  0x0,0x0,0x0,0x0,0xC0,0xC0,0xC0,0xC0
0003de ffff
0003df 0f0f
0003e0 ffff
0003e1 c0c0      	.DB  0xFF,0xFF,0xF,0xF,0xFF,0xFF,0xC0,0xC0
0003e2 c0c0
0003e3 0000
0003e4 0000
0003e5 0000      	.DB  0xC0,0xC0,0x0,0x0,0x0,0x0,0x0,0x0
0003e6 0000
0003e7 0000
0003e8 0000
0003e9 0000      	.DB  0x0,0x0,0x0,0x0,0x0,0x0,0x0,0x0
0003ea 0000
0003eb 0000
0003ec 0000
0003ed 0000      	.DB  0x0,0x0,0x0,0x0,0x0,0x0,0x0,0x0
0003ee 0000
0003ef 0000
0003f0 0000
0003f1 0000      	.DB  0x0,0x0,0x0,0x0,0x0,0x0,0x0,0x0
0003f2 0000
0003f3 0000
0003f4 0000
0003f5 0000      	.DB  0x0,0x0,0x0,0x0,0x0,0x0,0x0,0x0
0003f6 0000
0003f7 0000
0003f8 0000
0003f9 0000      	.DB  0x0,0x0,0x0,0x0,0x0,0x0,0x0,0x0
0003fa 0000
0003fb 0000
0003fc 0000
0003fd 0000      	.DB  0x0,0x0,0x0,0x0,0x0,0x0,0x0,0x0
0003fe 0000
0003ff 0000
000400 0000
000401 0000      	.DB  0x0,0x0,0x0,0x0,0x0,0x0,0x0,0x0
000402 0000
000403 0000
000404 0000
000405 0f0f      	.DB  0x0,0x0,0x0,0x0,0x0,0x0,0xF,0xF
000406 0f0f
000407 0f0f
000408 0f0f
000409 3f3f      	.DB  0xF,0xF,0xF,0xF,0xF,0xF,0x3F,0x3F
00040a 0f0f
00040b 0f0f
00040c 0f0f
00040d 0f0f      	.DB  0xF,0xF,0xF,0xF,0xF,0xF,0xF,0xF
00040e 0000
00040f 0000
000410 0000
000411 0000      	.DB  0x0,0x0,0x0,0x0,0x0,0x0,0x0,0x0
000412 0000
000413 0000
000414 0000
000415 0000      	.DB  0x0,0x0,0x0,0x0,0x0,0x0,0x0,0x0
000416 0000
000417 0000
000418 0000
000419 0000      	.DB  0x0,0x0,0x0,0x0,0x0,0x0,0x0,0x0
00041a 0000
00041b 0000
00041c 0000
00041d 0000      	.DB  0x0,0x0,0x0,0x0,0x0,0x0,0x0,0x0
00041e 0000
00041f 0000      	.DB  0x0,0x0,0x0,0x0
                 _imagen4:
000420 0054
000421 0030
000422 0000
000423 0000      	.DB  0x54,0x0,0x30,0x0,0x0,0x0,0x0,0x0
000424 0000
000425 8080
000426 8080
000427 e0e0      	.DB  0x0,0x0,0x80,0x80,0x80,0x80,0xE0,0xE0
000428 e0e0
000429 0000
00042a 0000
00042b 0000      	.DB  0xE0,0xE0,0x0,0x0,0x0,0x0,0x0,0x0
00042c 8000
00042d e080
00042e e0e0
00042f e0e0      	.DB  0x0,0x80,0x80,0xE0,0xE0,0xE0,0xE0,0xE0
000430 e0e0
000431 80e0
000432 0080
000433 0000      	.DB  0xE0,0xE0,0xE0,0x80,0x80,0x0,0x0,0x0
000434 0000
000435 0000
000436 0000
000437 0000      	.DB  0x0,0x0,0x0,0x0,0x0,0x0,0x0,0x0
000438 e000
000439 e0e0
00043a e0e0
00043b e0e0      	.DB  0x0,0xE0,0xE0,0xE0,0xE0,0xE0,0xE0,0xE0
00043c e0e0
00043d 00e0
00043e 0000
00043f 0000      	.DB  0xE0,0xE0,0xE0,0x0,0x0,0x0,0x0,0x0
000440 e000
000441 e0e0
000442 e0e0
000443 e0e0      	.DB  0x0,0xE0,0xE0,0xE0,0xE0,0xE0,0xE0,0xE0
000444 e0e0
000445 e0e0
000446 e0e0
000447 e0e0      	.DB  0xE0,0xE0,0xE0,0xE0,0xE0,0xE0,0xE0,0xE0
000448 0000
000449 0000
00044a 0000
00044b 0000      	.DB  0x0,0x0,0x0,0x0,0x0,0x0,0x0,0x0
00044c 0000
00044d 7e7e
00044e 7e7e
00044f 7f7f      	.DB  0x0,0x0,0x7E,0x7E,0x7E,0x7E,0x7F,0x7F
000450 ffff
000451 ffff
000452 ffff
000453 0000      	.DB  0xFF,0xFF,0xFF,0xFF,0xFF,0xFF,0x0,0x0
000454 0000
000455 0000
000456 fffe
000457 ffff      	.DB  0x0,0x0,0x0,0x0,0xFE,0xFF,0xFF,0xFF
000458 01ff
000459 0101
00045a ff01
00045b ffff      	.DB  0xFF,0x1,0x1,0x1,0x1,0xFF,0xFF,0xFF
00045c feff
00045d 00fe
00045e 0000
00045f 0000      	.DB  0xFF,0xFE,0xFE,0x0,0x0,0x0,0x0,0x0
000460 0000
000461 f800
000462 fff8
000463 ffff      	.DB  0x0,0x0,0x0,0xF8,0xF8,0xFF,0xFF,0xFF
000464 ffff
000465 ffff
000466 ffff
000467 00ff      	.DB  0xFF,0xFF,0xFF,0xFF,0xFF,0xFF,0xFF,0x0
000468 0000
000469 0000
00046a ff00
00046b ffff      	.DB  0x0,0x0,0x0,0x0,0x0,0xFF,0xFF,0xFF
00046c ffff
00046d 0101
00046e 8181
00046f 8181      	.DB  0xFF,0xFF,0x1,0x1,0x81,0x81,0x81,0x81
000470 8181
000471 0101
000472 0000
000473 0000      	.DB  0x81,0x81,0x1,0x1,0x0,0x0,0x0,0x0
000474 0000
000475 0000
000476 0000
000477 0000      	.DB  0x0,0x0,0x0,0x0,0x0,0x0,0x0,0x0
000478 0000
000479 0000
00047a ffff
00047b ffff      	.DB  0x0,0x0,0x0,0x0,0xFF,0xFF,0xFF,0xFF
00047c ffff
00047d 0000
00047e 0000
00047f 0000      	.DB  0xFF,0xFF,0x0,0x0,0x0,0x0,0x0,0x0
000480 ffff
000481 ffff
000482 00ff
000483 0000      	.DB  0xFF,0xFF,0xFF,0xFF,0xFF,0x0,0x0,0x0
000484 ff00
000485 ffff
000486 ffff
000487 00ff      	.DB  0x0,0xFF,0xFF,0xFF,0xFF,0xFF,0xFF,0x0
000488 0000
000489 0000
00048a f800
00048b fff8      	.DB  0x0,0x0,0x0,0x0,0x0,0xF8,0xF8,0xFF
00048c ffff
00048d 01ff
00048e ff01
00048f ffff      	.DB  0xFF,0xFF,0xFF,0x1,0x1,0xFF,0xFF,0xFF
000490 ffff
000491 00ff
000492 0000
000493 0000      	.DB  0xFF,0xFF,0xFF,0x0,0x0,0x0,0x0,0x0
000494 ff00
000495 ffff
000496 ffff
000497 0606      	.DB  0x0,0xFF,0xFF,0xFF,0xFF,0xFF,0x6,0x6
000498 0707
000499 ffff
00049a ffff
00049b fefe      	.DB  0x7,0x7,0xFF,0xFF,0xFF,0xFF,0xFE,0xFE
00049c 0000
00049d 0000
00049e 0000
00049f 0000      	.DB  0x0,0x0,0x0,0x0,0x0,0x0,0x0,0x0
0004a0 0000
0004a1 0000
0004a2 0000
0004a3 0000      	.DB  0x0,0x0,0x0,0x0,0x0,0x0,0x0,0x0
0004a4 ffff
0004a5 ffff
0004a6 ffff
0004a7 0000      	.DB  0xFF,0xFF,0xFF,0xFF,0xFF,0xFF,0x0,0x0
0004a8 0000
0004a9 0000
0004aa 7f0f
0004ab 7f7f      	.DB  0x0,0x0,0x0,0x0,0xF,0x7F,0x7F,0x7F
0004ac 7c7f
0004ad 7c7c
0004ae ff7c
0004af ffff      	.DB  0x7F,0x7C,0x7C,0x7C,0x7C,0xFF,0xFF,0xFF
0004b0 ffff
0004b1 00ff
0004b2 0000
0004b3 fc00      	.DB  0xFF,0xFF,0xFF,0x0,0x0,0x0,0x0,0xFC
0004b4 fffc
0004b5 ffff
0004b6 f0ff
0004b7 f0f0      	.DB  0xFC,0xFF,0xFF,0xFF,0xFF,0xF0,0xF0,0xF0
0004b8 fff0
0004b9 ffff
0004ba ffff
0004bb f0ff      	.DB  0xF0,0xFF,0xFF,0xFF,0xFF,0xFF,0xFF,0xF0
0004bc 00f0
0004bd 0000
0004be f000
0004bf f0f0      	.DB  0xF0,0x0,0x0,0x0,0x0,0xF0,0xF0,0xF0
0004c0 f0f0
0004c1 0000
0004c2 0000
0004c3 ffff      	.DB  0xF0,0xF0,0x0,0x0,0x0,0x0,0xFF,0xFF
0004c4 ffff
0004c5 ffff
0004c6 0000
0004c7 0000      	.DB  0xFF,0xFF,0xFF,0xFF,0x0,0x0,0x0,0x0
0004c8 0000
0004c9 0000
0004ca 0000
0004cb 0000      	.DB  0x0,0x0,0x0,0x0,0x0,0x0,0x0,0x0
0004cc 0000
0004cd 0000
0004ce ffff
0004cf ffff      	.DB  0x0,0x0,0x0,0x0,0xFF,0xFF,0xFF,0xFF
0004d0 ffff
0004d1 0000
0004d2 0000
0004d3 0000      	.DB  0xFF,0xFF,0x0,0x0,0x0,0x0,0x0,0x0
0004d4 fe7e
0004d5 fefe
0004d6 80fe
0004d7 8080      	.DB  0x7E,0xFE,0xFE,0xFE,0xFE,0x80,0x80,0x80
0004d8 ff80
0004d9 ffff
0004da 7fff
0004db 007f      	.DB  0x80,0xFF,0xFF,0xFF,0xFF,0x7F,0x7F,0x0
0004dc 0000
0004dd 0700
0004de 0707
0004df 0707      	.DB  0x0,0x0,0x0,0x7,0x7,0x7,0x7,0x7
0004e0 0707
0004e1 0707
0004e2 ff07
0004e3 ffff      	.DB  0x7,0x7,0x7,0x7,0x7,0xFF,0xFF,0xFF
0004e4 ffff
0004e5 07ff
0004e6 0007
0004e7 0000      	.DB  0xFF,0xFF,0xFF,0x7,0x7,0x0,0x0,0x0
0004e8 7f00
0004e9 ff7f
0004ea ffff
0004eb 8080      	.DB  0x0,0x7F,0x7F,0xFF,0xFF,0xFF,0x80,0x80
0004ec 8080
0004ed ffff
0004ee ffff
0004ef 7f7f      	.DB  0x80,0x80,0xFF,0xFF,0xFF,0xFF,0x7F,0x7F
0004f0 0000
0004f1 0000
0004f2 0000
0004f3 0000      	.DB  0x0,0x0,0x0,0x0,0x0,0x0,0x0,0x0
0004f4 0000
0004f5 0000
0004f6 0000
0004f7 0000      	.DB  0x0,0x0,0x0,0x0,0x0,0x0,0x0,0x0
0004f8 0707
0004f9 0707
0004fa 0707
0004fb 0000      	.DB  0x7,0x7,0x7,0x7,0x7,0x7,0x0,0x0
0004fc 0000
0004fd 0000
0004fe 0100
0004ff 0701      	.DB  0x0,0x0,0x0,0x0,0x0,0x1,0x1,0x7
000500 0707
000501 0707
000502 0707
000503 0107      	.DB  0x7,0x7,0x7,0x7,0x7,0x7,0x7,0x1
000504 0001
000505 0000
000506 0000
000507 0000      	.DB  0x1,0x0,0x0,0x0,0x0,0x0,0x0,0x0
000508 0000
000509 0000
00050a 0000
00050b 0000      	.DB  0x0,0x0,0x0,0x0,0x0,0x0,0x0,0x0
00050c 0700
00050d 0707
00050e 0707
00050f 0007      	.DB  0x0,0x7,0x7,0x7,0x7,0x7,0x7,0x0
000510 0000
000511 0000
000512 0000
000513 0100      	.DB  0x0,0x0,0x0,0x0,0x0,0x0,0x0,0x1
000514 0707
000515 0707
000516 0707
000517 0707      	.DB  0x7,0x7,0x7,0x7,0x7,0x7,0x7,0x7
000518 0101
000519 0000
00051a 0000
00051b 0000      	.DB  0x1,0x1,0x0,0x0,0x0,0x0,0x0,0x0
00051c 0000
00051d 0000      	.DB  0x0,0x0,0x0,0x0
                 _imagen5:
00051e 0054
00051f 0030
000520 0000
000521 0000      	.DB  0x54,0x0,0x30,0x0,0x0,0x0,0x0,0x0
000522 0000
000523 8000
000524 8080
000525 8080      	.DB  0x0,0x0,0x0,0x80,0x80,0x80,0x80,0x80
000526 8080
000527 8080
000528 0080
000529 0000      	.DB  0x80,0x80,0x80,0x80,0x80,0x0,0x0,0x0
00052a 0000
00052b 0000
00052c 0000
00052d 0000      	.DB  0x0,0x0,0x0,0x0,0x0,0x0,0x0,0x0
00052e 0000
00052f 8080
000530 0000
000531 0000      	.DB  0x0,0x0,0x80,0x80,0x0,0x0,0x0,0x0
000532 0000
000533 0000
000534 0000
000535 8080      	.DB  0x0,0x0,0x0,0x0,0x0,0x0,0x80,0x80
000536 0000
000537 0000
000538 0000
000539 0000      	.DB  0x0,0x0,0x0,0x0,0x0,0x0,0x0,0x0
00053a 0000
00053b 0000
00053c 8000
00053d 0080      	.DB  0x0,0x0,0x0,0x0,0x0,0x80,0x80,0x0
00053e 0000
00053f 0000
000540 8080
000541 8080      	.DB  0x0,0x0,0x0,0x0,0x80,0x80,0x80,0x80
000542 8080
000543 8080
000544 8080
000545 8080      	.DB  0x80,0x80,0x80,0x80,0x80,0x80,0x80,0x80
000546 0080
000547 0000
000548 0000
000549 0000      	.DB  0x80,0x0,0x0,0x0,0x0,0x0,0x0,0x0
00054a 0000
00054b 0000
00054c ce00
00054d 01ce      	.DB  0x0,0x0,0x0,0x0,0x0,0xCE,0xCE,0x1
00054e 0101
00054f 0101
000550 3131
000551 3131      	.DB  0x1,0x1,0x1,0x1,0x31,0x31,0x31,0x31
000552 b231
000553 b2b2
000554 0000
000555 0000      	.DB  0x31,0xB2,0xB2,0xB2,0x0,0x0,0x0,0x0
000556 c000
000557 4ec0
000558 4e4e
000559 4343      	.DB  0x0,0xC0,0xC0,0x4E,0x4E,0x4E,0x43,0x43
00055a 4c4c
00055b c04c
00055c 00c0
00055d 0000      	.DB  0x4C,0x4C,0x4C,0xC0,0xC0,0x0,0x0,0x0
00055e 0000
00055f ffff
000560 0202
000561 7002      	.DB  0x0,0x0,0xFF,0xFF,0x2,0x2,0x2,0x70
000562 0070
000563 0000
000564 0000
000565 0202      	.DB  0x70,0x0,0x0,0x0,0x0,0x0,0x2,0x2
000566 ff02
000567 00ff
000568 0000
000569 0000      	.DB  0x2,0xFF,0xFF,0x0,0x0,0x0,0x0,0x0
00056a ffff
00056b 31ff
00056c 3131
00056d 3131      	.DB  0xFF,0xFF,0xFF,0x31,0x31,0x31,0x31,0x31
00056e 3131
00056f 3131
000570 0031
000571 0000      	.DB  0x31,0x31,0x31,0x31,0x31,0x0,0x0,0x0
000572 0000
000573 0000
000574 0000
000575 0000      	.DB  0x0,0x0,0x0,0x0,0x0,0x0,0x0,0x0
000576 0100
000577 0601
000578 0606
000579 0606      	.DB  0x0,0x1,0x1,0x6,0x6,0x6,0x6,0x6
00057a 0606
00057b 0606
00057c 0106
00057d 0101      	.DB  0x6,0x6,0x6,0x6,0x6,0x1,0x1,0x1
00057e 0000
00057f 0606
000580 0106
000581 0001      	.DB  0x0,0x0,0x6,0x6,0x6,0x1,0x1,0x0
000582 0000
000583 0000
000584 0000
000585 0100      	.DB  0x0,0x0,0x0,0x0,0x0,0x0,0x0,0x1
000586 0601
000587 0606
000588 0000
000589 0707      	.DB  0x1,0x6,0x6,0x6,0x0,0x0,0x7,0x7
00058a 0000
00058b 0000
00058c 0600
00058d 0606      	.DB  0x0,0x0,0x0,0x0,0x0,0x6,0x6,0x6
00058e 0000
00058f 0000
000590 0700
000591 0007      	.DB  0x0,0x0,0x0,0x0,0x0,0x7,0x7,0x0
000592 0000
000593 0000
000594 0707
000595 0607      	.DB  0x0,0x0,0x0,0x0,0x7,0x7,0x7,0x6
000596 0606
000597 0606
000598 0606
000599 0606      	.DB  0x6,0x6,0x6,0x6,0x6,0x6,0x6,0x6
00059a 0006
00059b 0000
00059c 0000
00059d 0000      	.DB  0x6,0x0,0x0,0x0,0x0,0x0,0x0,0x0
00059e 0000
00059f 0000
0005a0 8000
0005a1 6080      	.DB  0x0,0x0,0x0,0x0,0x0,0x80,0x80,0x60
0005a2 6060
0005a3 6060
0005a4 6060
0005a5 6060      	.DB  0x60,0x60,0x60,0x60,0x60,0x60,0x60,0x60
0005a6 8060
0005a7 8080
0005a8 0000
0005a9 6060      	.DB  0x60,0x80,0x80,0x80,0x0,0x0,0x60,0x60
0005aa 8060
0005ab 0080
0005ac 0000
0005ad 0000      	.DB  0x60,0x80,0x80,0x0,0x0,0x0,0x0,0x0
0005ae 0000
0005af 8000
0005b0 6080
0005b1 6060      	.DB  0x0,0x0,0x0,0x80,0x80,0x60,0x60,0x60
0005b2 0000
0005b3 e0e0
0005b4 6060
0005b5 6060      	.DB  0x0,0x0,0xE0,0xE0,0x60,0x60,0x60,0x60
0005b6 6060
0005b7 6060
0005b8 6060
0005b9 0000      	.DB  0x60,0x60,0x60,0x60,0x60,0x60,0x0,0x0
0005ba 0000
0005bb e000
0005bc e0e0
0005bd 6060      	.DB  0x0,0x0,0x0,0xE0,0xE0,0xE0,0x60,0x60
0005be 6060
0005bf 6060
0005c0 e060
0005c1 e0e0      	.DB  0x60,0x60,0x60,0x60,0x60,0xE0,0xE0,0xE0
0005c2 0000
0005c3 0000
0005c4 0000
0005c5 0000      	.DB  0x0,0x0,0x0,0x0,0x0,0x0,0x0,0x0
0005c6 0000
0005c7 0000
0005c8 0000
0005c9 0000      	.DB  0x0,0x0,0x0,0x0,0x0,0x0,0x0,0x0
0005ca 4100
0005cb 8041
0005cc 8080
0005cd 8080      	.DB  0x0,0x41,0x41,0x80,0x80,0x80,0x80,0x80
0005ce 8080
0005cf 8080
0005d0 4180
0005d1 4141      	.DB  0x80,0x80,0x80,0x80,0x80,0x41,0x41,0x41
0005d2 0000
0005d3 0000
0005d4 0300
0005d5 7003      	.DB  0x0,0x0,0x0,0x0,0x0,0x3,0x3,0x70
0005d6 7070
0005d7 8080
0005d8 7070
0005d9 0370      	.DB  0x70,0x70,0x80,0x80,0x70,0x70,0x70,0x3
0005da 0003
0005db 0000
0005dc 0000
0005dd ffff      	.DB  0x3,0x0,0x0,0x0,0x0,0x0,0xFF,0xFF
0005de 8c8c
0005df 8c8c
0005e0 8c8c
0005e1 8c8c      	.DB  0x8C,0x8C,0x8C,0x8C,0x8C,0x8C,0x8C,0x8C
0005e2 8c8c
0005e3 0000
0005e4 0000
0005e5 ff00      	.DB  0x8C,0x8C,0x0,0x0,0x0,0x0,0x0,0xFF
0005e6 ffff
0005e7 0c0c
0005e8 0c0c
0005e9 3c0c      	.DB  0xFF,0xFF,0xC,0xC,0xC,0xC,0xC,0x3C
0005ea cf3c
0005eb cfcf
0005ec 0000
0005ed 0000      	.DB  0x3C,0xCF,0xCF,0xCF,0x0,0x0,0x0,0x0
0005ee 0000
0005ef 0000
0005f0 0000
0005f1 0000      	.DB  0x0,0x0,0x0,0x0,0x0,0x0,0x0,0x0
0005f2 0000
0005f3 0000
0005f4 0000
0005f5 0100      	.DB  0x0,0x0,0x0,0x0,0x0,0x0,0x0,0x1
0005f6 0101
0005f7 0101
0005f8 0101
0005f9 0101      	.DB  0x1,0x1,0x1,0x1,0x1,0x1,0x1,0x1
0005fa 0001
0005fb 0000
0005fc 0000
0005fd 0000      	.DB  0x1,0x0,0x0,0x0,0x0,0x0,0x0,0x0
0005fe 0000
0005ff 0000
000600 0000
000601 0101      	.DB  0x0,0x0,0x0,0x0,0x0,0x0,0x1,0x1
000602 0000
000603 0000
000604 0000
000605 0000      	.DB  0x0,0x0,0x0,0x0,0x0,0x0,0x0,0x0
000606 0000
000607 0101
000608 0101
000609 0101      	.DB  0x0,0x0,0x1,0x1,0x1,0x1,0x1,0x1
00060a 0101
00060b 0101
00060c 0101
00060d 0000      	.DB  0x1,0x1,0x1,0x1,0x1,0x1,0x0,0x0
00060e 0000
00060f 0100
000610 0101
000611 0000      	.DB  0x0,0x0,0x0,0x1,0x1,0x1,0x0,0x0
000612 0000
000613 0000
000614 0100
000615 0101      	.DB  0x0,0x0,0x0,0x0,0x0,0x1,0x1,0x1
000616 0000
000617 0000
000618 0000
000619 0000      	.DB  0x0,0x0,0x0,0x0,0x0,0x0,0x0,0x0
00061a 0000
00061b 0000      	.DB  0x0,0x0,0x0,0x0
                 __glcd_mask:
00061c 0100
00061d 0703
00061e 1f0f
00061f 7f3f      	.DB  0x0,0x1,0x3,0x7,0xF,0x1F,0x3F,0x7F
C:\ChipAVR\Proyecto\PrimerMicro\Debug\List\PrimerMicro.asm(1515): warning: .cseg .db misalignment - padding zero byte
000620 00ff      	.DB  0xFF
                 _tbl10_G103:
000621 2710
000622 03e8
000623 0064
000624 000a      	.DB  0x10,0x27,0xE8,0x3,0x64,0x0,0xA,0x0
000625 0001      	.DB  0x1,0x0
                 _tbl16_G103:
000626 1000
000627 0100
000628 0010
000629 0001      	.DB  0x0,0x10,0x0,0x1,0x10,0x0,0x1,0x0
                 
                 _0x3:
00062a 0303
00062b 0203
00062c 0c02
00062d 0800      	.DB  0x3,0x3,0x3,0x2,0x2,0xC,0x0,0x8
00062e 0100
00062f 0600      	.DB  0x0,0x1,0x0,0x6
                 _0x2D:
C:\ChipAVR\Proyecto\PrimerMicro\Debug\List\PrimerMicro.asm(1526): warning: .cseg .db misalignment - padding zero byte
000630 0004      	.DB  0x4
                 _0x0:
000631 0049
000632 0d0a
000633 4400
000634 6100      	.DB  0x49,0x0,0xA,0xD,0x0,0x44,0x0,0x61
000635 4100
000636 4c00
000637 4445
000638 2031      	.DB  0x0,0x41,0x0,0x4C,0x45,0x44,0x31,0x20
000639 6e65
00063a 6563
00063b 646e
00063c 6469      	.DB  0x65,0x6E,0x63,0x65,0x6E,0x64,0x69,0x64
00063d 0a6f
00063e 000d
00063f 454c
000640 3144      	.DB  0x6F,0xA,0xD,0x0,0x4C,0x45,0x44,0x31
000641 4120
000642 6170
000643 6167
000644 6f64      	.DB  0x20,0x41,0x70,0x61,0x67,0x61,0x64,0x6F
000645 0d0a
000646 4c00
000647 4445
000648 2032      	.DB  0xA,0xD,0x0,0x4C,0x45,0x44,0x32,0x20
000649 6e65
00064a 6563
00064b 646e
00064c 6469      	.DB  0x65,0x6E,0x63,0x65,0x6E,0x64,0x69,0x64
00064d 0a6f
00064e 000d
00064f 454c
000650 3244      	.DB  0x6F,0xA,0xD,0x0,0x4C,0x45,0x44,0x32
000651 6120
000652 6170
000653 6167
000654 6f64      	.DB  0x20,0x61,0x70,0x61,0x67,0x61,0x64,0x6F
000655 0d0a
000656 4c00
000657 4445
000658 2033      	.DB  0xA,0xD,0x0,0x4C,0x45,0x44,0x33,0x20
000659 6e65
00065a 6563
00065b 646e
00065c 6469      	.DB  0x65,0x6E,0x63,0x65,0x6E,0x64,0x69,0x64
00065d 0a6f
00065e 000d
00065f 454c
000660 3344      	.DB  0x6F,0xA,0xD,0x0,0x4C,0x45,0x44,0x33
000661 6120
000662 6170
000663 6167
000664 6f64      	.DB  0x20,0x61,0x70,0x61,0x67,0x61,0x64,0x6F
000665 0d0a
000666 4c00
000667 4445
000668 2034      	.DB  0xA,0xD,0x0,0x4C,0x45,0x44,0x34,0x20
000669 6e65
00066a 6563
00066b 646e
00066c 6469      	.DB  0x65,0x6E,0x63,0x65,0x6E,0x64,0x69,0x64
00066d 0a6f
00066e 000d
00066f 454c
000670 3444      	.DB  0x6F,0xA,0xD,0x0,0x4C,0x45,0x44,0x34
000671 6120
000672 6170
000673 6167
000674 6f64      	.DB  0x20,0x61,0x70,0x61,0x67,0x61,0x64,0x6F
000675 0d0a
000676 5300
000677 7274
000678 0d0a      	.DB  0xA,0xD,0x0,0x53,0x74,0x72,0xA,0xD
000679 4500
00067a 6373
00067b 0d0a
00067c 4a00      	.DB  0x0,0x45,0x73,0x63,0xA,0xD,0x0,0x4A
00067d 706d
00067e 0d0a
00067f 5300
000680 6f68      	.DB  0x6D,0x70,0xA,0xD,0x0,0x53,0x68,0x6F
000681 0d0a
C:\ChipAVR\Proyecto\PrimerMicro\Debug\List\PrimerMicro.asm(1548): warning: .cseg .db misalignment - padding zero byte
000682 0000      	.DB  0xA,0xD,0x0
                 _0x2100060:
C:\ChipAVR\Proyecto\PrimerMicro\Debug\List\PrimerMicro.asm(1550): warning: .cseg .db misalignment - padding zero byte
000683 0001      	.DB  0x1
                 _0x2100000:
000684 4e2d
000685 4e41
000686 4900
000687 464e      	.DB  0x2D,0x4E,0x41,0x4E,0x0,0x49,0x4E,0x46
C:\ChipAVR\Proyecto\PrimerMicro\Debug\List\PrimerMicro.asm(1553): warning: .cseg .db misalignment - padding zero byte
000688 0000      	.DB  0x0
                 
                 __GLOBAL_INI_TBL:
000689 0001      	.DW  0x01
00068a 03dc      	.DW  _vidas
00068b 0c60      	.DW  _0x2D*2
                 
00068c 0002      	.DW  0x02
00068d 0300      	.DW  _0x45
00068e 0c62      	.DW  _0x0*2
                 
00068f 0003      	.DW  0x03
000690 0302      	.DW  _0x45+2
000691 0c64      	.DW  _0x0*2+2
                 
000692 0002      	.DW  0x02
000693 0305      	.DW  _0x45+5
000694 0c67      	.DW  _0x0*2+5
                 
000695 0003      	.DW  0x03
000696 0307      	.DW  _0x45+7
000697 0c64      	.DW  _0x0*2+2
                 
000698 0002      	.DW  0x02
000699 030a      	.DW  _0x45+10
00069a 0c69      	.DW  _0x0*2+7
                 
00069b 0003      	.DW  0x03
00069c 030c      	.DW  _0x45+12
00069d 0c64      	.DW  _0x0*2+2
                 
00069e 0002      	.DW  0x02
00069f 030f      	.DW  _0x45+15
0006a0 0c6b      	.DW  _0x0*2+9
                 
0006a1 0003      	.DW  0x03
0006a2 0311      	.DW  _0x45+17
0006a3 0c64      	.DW  _0x0*2+2
                 
0006a4 0011      	.DW  0x11
0006a5 0314      	.DW  _0x45+20
0006a6 0c6d      	.DW  _0x0*2+11
                 
0006a7 000f      	.DW  0x0F
0006a8 0325      	.DW  _0x45+37
0006a9 0c7e      	.DW  _0x0*2+28
                 
0006aa 0011      	.DW  0x11
0006ab 0334      	.DW  _0x45+52
0006ac 0c8d      	.DW  _0x0*2+43
                 
0006ad 000f      	.DW  0x0F
0006ae 0345      	.DW  _0x45+69
0006af 0c9e      	.DW  _0x0*2+60
                 
0006b0 0011      	.DW  0x11
0006b1 0354      	.DW  _0x45+84
0006b2 0cad      	.DW  _0x0*2+75
                 
0006b3 000f      	.DW  0x0F
0006b4 0365      	.DW  _0x45+101
0006b5 0cbe      	.DW  _0x0*2+92
                 
0006b6 0011      	.DW  0x11
0006b7 0374      	.DW  _0x45+116
0006b8 0ccd      	.DW  _0x0*2+107
                 
0006b9 000f      	.DW  0x0F
0006ba 0385      	.DW  _0x45+133
0006bb 0cde      	.DW  _0x0*2+124
                 
0006bc 0006      	.DW  0x06
0006bd 0394      	.DW  _0x45+148
0006be 0ced      	.DW  _0x0*2+139
                 
0006bf 0006      	.DW  0x06
0006c0 039a      	.DW  _0x45+154
0006c1 0cf3      	.DW  _0x0*2+145
                 
0006c2 0006      	.DW  0x06
0006c3 03a0      	.DW  _0x45+160
0006c4 0cf9      	.DW  _0x0*2+151
                 
0006c5 0006      	.DW  0x06
0006c6 03a6      	.DW  _0x45+166
0006c7 0cff      	.DW  _0x0*2+157
                 
0006c8 0001      	.DW  0x01
0006c9 05d9      	.DW  __seed_G108
0006ca 0d06      	.DW  _0x2100060*2
                 
                 _0xFFFFFFFF:
0006cb 0000      	.DW  0
                 
                 #define __GLOBAL_INI_TBL_PRESENT 1
                 
                 __RESET:
0006cc 94f8      	CLI
0006cd 27ee      	CLR  R30
0006ce bbef      	OUT  EECR,R30
                 
                 ;INTERRUPT VECTORS ARE PLACED
                 ;AT THE START OF FLASH
0006cf e0f1      	LDI  R31,1
0006d0 bff5      	OUT  MCUCR,R31
0006d1 bfe5      	OUT  MCUCR,R30
                 
                 ;CLEAR R2-R14
0006d2 e08d      	LDI  R24,(14-2)+1
0006d3 e0a2      	LDI  R26,2
0006d4 27bb      	CLR  R27
                 __CLEAR_REG:
0006d5 93ed      	ST   X+,R30
0006d6 958a      	DEC  R24
0006d7 f7e9      	BRNE __CLEAR_REG
                 
                 ;CLEAR SRAM
0006d8 e080      	LDI  R24,LOW(__CLEAR_SRAM_SIZE)
0006d9 e098      	LDI  R25,HIGH(__CLEAR_SRAM_SIZE)
0006da e0a0      	LDI  R26,LOW(__SRAM_START)
0006db e0b1      	LDI  R27,HIGH(__SRAM_START)
                 __CLEAR_SRAM:
0006dc 93ed      	ST   X+,R30
0006dd 9701      	SBIW R24,1
0006de f7e9      	BRNE __CLEAR_SRAM
                 
                 ;GLOBAL VARIABLES INITIALIZATION
0006df e1e2      	LDI  R30,LOW(__GLOBAL_INI_TBL*2)
0006e0 e0fd      	LDI  R31,HIGH(__GLOBAL_INI_TBL*2)
                 __GLOBAL_INI_NEXT:
0006e1 9185      	LPM  R24,Z+
0006e2 9195      	LPM  R25,Z+
0006e3 9700      	SBIW R24,0
0006e4 f061      	BREQ __GLOBAL_INI_END
0006e5 91a5      	LPM  R26,Z+
0006e6 91b5      	LPM  R27,Z+
0006e7 9005      	LPM  R0,Z+
0006e8 9015      	LPM  R1,Z+
0006e9 01bf      	MOVW R22,R30
0006ea 01f0      	MOVW R30,R0
                 __GLOBAL_INI_LOOP:
0006eb 9005      	LPM  R0,Z+
0006ec 920d      	ST   X+,R0
0006ed 9701      	SBIW R24,1
0006ee f7e1      	BRNE __GLOBAL_INI_LOOP
0006ef 01fb      	MOVW R30,R22
0006f0 cff0      	RJMP __GLOBAL_INI_NEXT
                 __GLOBAL_INI_END:
                 
                 ;GPIOR0 INITIALIZATION
0006f1 e0e0      	LDI  R30,__GPIOR0_INIT
0006f2 bbee      	OUT  GPIOR0,R30
                 
                 ;HARDWARE STACK POINTER INITIALIZATION
0006f3 efef      	LDI  R30,LOW(__SRAM_END-__HEAP_SIZE)
0006f4 bfed      	OUT  SPL,R30
0006f5 e0e8      	LDI  R30,HIGH(__SRAM_END-__HEAP_SIZE)
0006f6 bfee      	OUT  SPH,R30
                 
                 ;DATA STACK POINTER INITIALIZATION
0006f7 e0c0      	LDI  R28,LOW(__SRAM_START+__DSTACK_SIZE)
0006f8 e0d3      	LDI  R29,HIGH(__SRAM_START+__DSTACK_SIZE)
                 
0006f9 940c 0739 	JMP  _main
                 
                 	.ESEG
                 	.ORG 0
                 
                 	.DSEG
                 	.ORG 0x300
                 
                 	.CSEG
                 ;/*
                 ; * PrimerMicro.c
                 ; *
                 ; * Created: 04/05/2017 04:59:22 p. m.
                 ; * Author: adomingu
                 ; * Made with love by: Agui, Pau, Isra.
                 ; */
                 ;
                 ;// Librerias Display Nokia
                 ;#include <mega328p.h>
                 	#ifndef __SLEEP_DEFINED__
                 	#define __SLEEP_DEFINED__
                 	.EQU __se_bit=0x01
                 	.EQU __sm_mask=0x0E
                 	.EQU __sm_adc_noise_red=0x02
                 	.EQU __sm_powerdown=0x04
                 	.EQU __sm_powersave=0x06
                 	.EQU __sm_standby=0x0C
                 	.EQU __sm_ext_standby=0x0E
                 	.SET power_ctrl_reg=smcr
                 	#endif
                 ;#include <io.h>
                 ;#include <delay.h>
                 ;// Graphic Display functions
                 ;#include <glcd.h>
                 ;
                 ;// Font used for displaying text
                 ;// on the graphic display
                 ;#include <font5x7.h>
                 ;
                 ;// Librerias proyecto
                 ;#include <io.h>
                 ;#include <delay.h>
                 ;#include <display.h>
                 
                 	.CSEG
                 ;	TableSetup -> Y+1
                 ;	i -> R16
                 ; 0000 0017     SBI __lcd_port-1,__lcd_EN
                 ;	dato -> Y+0
                 ;	Comando -> Y+1
                 ;	tempComando -> R16
                 ;	dato -> Y+1
                 ;	tempdato -> R16
                 ;	i -> R16
                 ;	tiempo -> Y+1
                 ;	i -> R16
                 ;	Mensaje -> Y+1
                 ;	i -> R16
                 ;	x -> Y+1
                 ;	y -> Y+0
                 ;	NoCaracter -> Y+3
                 ;	datos -> Y+1
                 ;	i -> R16
                 ;#include <stdio.h>
                 ;#include <stdint.h>
                 ;#include "FuncionesSerial.h"
                 _UART_read:
                 ; .FSTART _UART_read
0006fb 91e0 00c0 	LDS  R30,192
0006fd 78e0      	ANDI R30,LOW(0x80)
0006fe f019      	BREQ _0x22
0006ff 91e0 00c6 	LDS  R30,198
000701 9508      	RET
                 _0x22:
000702 e0e0      	LDI  R30,LOW(0)
000703 9508      	RET
000704 9508      	RET
                 ; .FEND
                 _UART_write:
                 ; .FSTART _UART_write
000705 93aa      	ST   -Y,R26
                 ;	caracter -> Y+0
                 _0x24:
000706 91e0 00c0 	LDS  R30,192
000708 72e0      	ANDI R30,LOW(0x20)
000709 f3e1      	BREQ _0x24
00070a 940c 0ce8 	JMP  _0x2120005
                 ; .FEND
                 _UART_write_txt:
                 ; .FSTART _UART_write_txt
00070c 93ba      	ST   -Y,R27
00070d 93aa      	ST   -Y,R26
                 ;	*cadena -> Y+0
                 _0x27:
00070e 81a8      	LD   R26,Y
00070f 81b9      	LDD  R27,Y+1
000710 91ec      	LD   R30,X
000711 30e0      	CPI  R30,0
000712 f041      	BREQ _0x29
000713 91ac      	LD   R26,X
000714 dff0      	RCALL _UART_write
000715 81e8      	LD   R30,Y
000716 81f9      	LDD  R31,Y+1
000717 9631      	ADIW R30,1
000718 83e8      	ST   Y,R30
000719 83f9      	STD  Y+1,R31
00071a cff3      	RJMP _0x27
                 _0x29:
00071b 9622      	ADIW R28,2
00071c 9508      	RET
                 ; .FEND
                 ;
                 ;// -- Imagen 1 -- //
                 ;flash unsigned char imagen1 [] = {
                 ;0x54, 0x00, 0x30, 0x00,
                 ;0x00, 0x00, 0x00, 0x00, 0x00, 0x00, 0x00, 0x00, 0x00, 0x00, 0x00, 0x00, 0x00, 0x00, 0x00, 0x00,
                 ;0x00, 0x3C, 0x3C, 0xEC, 0xFC, 0xB0, 0xF0, 0xB0, 0x30, 0x30, 0xB0, 0xB0, 0xB0, 0x30, 0xB0, 0xB0,
                 ;0xEC, 0xEC, 0x3C, 0x3C, 0x00, 0x00, 0x00, 0x00, 0x00, 0x00, 0x00, 0x00, 0x00, 0x00, 0x00, 0x00,
                 ;0x00, 0x00, 0x00, 0x00, 0x00, 0x00, 0x00, 0x00, 0x00, 0x00, 0x00, 0x00, 0x00, 0x00, 0x00, 0x00,
                 ;0x00, 0x00, 0x00, 0x00, 0x00, 0x00, 0x00, 0x00, 0x00, 0x00, 0x00, 0x00, 0x00, 0x00, 0x00, 0x00,
                 ;0x00, 0x00, 0x00, 0x00, 0x00, 0x00, 0x00, 0x00, 0x00, 0x00, 0x00, 0x00, 0x00, 0x00, 0x00, 0x00,
                 ;0x00, 0x00, 0x00, 0x80, 0x80, 0xFF, 0xFF, 0xBA, 0xB8, 0x76, 0xFF, 0xFC, 0xFA, 0xFE, 0xFF, 0xFB,
                 ;0xFF, 0xFF, 0xFF, 0xDB, 0xFE, 0xFD, 0xFF, 0xFF, 0x80, 0x80, 0x00, 0x00, 0x00, 0x00, 0x00, 0x00,
                 ;0x00, 0x00, 0x00, 0x9C, 0x9E, 0xFF, 0xFF, 0x3F, 0xBF, 0xBE, 0xFC, 0xEC, 0xEC, 0xEC, 0xEC, 0xEE,
                 ;0xF8, 0xB8, 0xF8, 0xF8, 0xE0, 0xE0, 0xE0, 0xE0, 0x80, 0x80, 0x00, 0x00, 0x00, 0x00, 0x00, 0x00,
                 ;0x00, 0x00, 0x00, 0x00, 0x00, 0x00, 0x00, 0x00, 0x00, 0x00, 0x00, 0x00, 0x00, 0x00, 0x00, 0x00,
                 ;0x00, 0x00, 0x00, 0x00, 0x00, 0xE0, 0xE0, 0xFF, 0x1F, 0xFD, 0xFA, 0xFF, 0xFF, 0xFD, 0xFF, 0xFF,
                 ;0xFF, 0xDF, 0xDF, 0xDF, 0xFF, 0xE7, 0xFF, 0xFD, 0xFF, 0xFE, 0xFF, 0xFF, 0xFF, 0xFF, 0x60, 0x60,
                 ;0x60, 0x60, 0x98, 0x38, 0x98, 0x5E, 0xE6, 0xF7, 0x79, 0xFD, 0xFA, 0xF6, 0xF7, 0xFF, 0xFF, 0xFF,
                 ;0xFF, 0xFF, 0xFF, 0xEF, 0xFF, 0xFF, 0xFF, 0xFD, 0xFF, 0xFF, 0xFE, 0xFF, 0xFD, 0xFF, 0xFE, 0xFE,
                 ;0xF8, 0x20, 0x00, 0x00, 0x00, 0x00, 0x00, 0x00, 0x00, 0x00, 0x00, 0x00, 0x00, 0x00, 0x00, 0x00,
                 ;0x00, 0x00, 0x00, 0x00, 0x00, 0x00, 0x00, 0xE0, 0xF0, 0xFF, 0xDF, 0xFF, 0xFB, 0xFF, 0xFF, 0xFF,
                 ;0xFF, 0xFF, 0xFF, 0xFF, 0xFF, 0xFF, 0xFF, 0xFF, 0xFF, 0xFF, 0xFF, 0x5F, 0x5F, 0x97, 0x49, 0xB9,
                 ;0xA9, 0xAD, 0xAD, 0xEC, 0xF6, 0xD3, 0x93, 0xF3, 0xFD, 0xFD, 0xFF, 0xFF, 0xF7, 0xFF, 0xFF, 0xFF,
                 ;0xFF, 0xFF, 0xFF, 0xFF, 0xFF, 0xFF, 0xFF, 0xFF, 0xFF, 0xFF, 0xFF, 0xFF, 0x3F, 0x3F, 0x0F, 0x0F,
                 ;0x0F, 0x0F, 0x03, 0x03, 0x00, 0x00, 0x00, 0x00, 0x00, 0x00, 0x00, 0x00, 0x00, 0x00, 0x00, 0x00,
                 ;0x00, 0x00, 0x00, 0x00, 0x00, 0x00, 0x00, 0x00, 0x00, 0x00, 0x00, 0x1F, 0x3F, 0xFF, 0xFE, 0xFF,
                 ;0xFF, 0xFF, 0xFF, 0xFF, 0xFF, 0x7F, 0x7F, 0x7F, 0x7F, 0x7F, 0xFF, 0xFF, 0xFF, 0xC0, 0xFE, 0xFE,
                 ;0xF9, 0xFD, 0xBE, 0x7C, 0xFE, 0xFF, 0xFF, 0xFF, 0xFE, 0xFE, 0xFF, 0xFF, 0xFF, 0xFF, 0xFF, 0xFF,
                 ;0xFF, 0xFF, 0xFF, 0xFF, 0xFF, 0x7F, 0x7F, 0x3F, 0x3F, 0xFE, 0xFF, 0xFF, 0xFF, 0xFF, 0x03, 0x03,
                 ;0x00, 0x00, 0x00, 0x00, 0x00, 0x00, 0x00, 0x00, 0x00, 0x00, 0x00, 0x00, 0x00, 0x00, 0x00, 0x00,
                 ;0x00, 0x00, 0x00, 0x00, 0x00, 0x00, 0x00, 0x00, 0x00, 0x00, 0x00, 0x00, 0x00, 0x00, 0x00, 0x00,
                 ;0x00, 0x01, 0x01, 0x01, 0x01, 0x01, 0x01, 0x01, 0x01, 0x00, 0x00, 0x00, 0x00, 0x00, 0x02, 0x07,
                 ;0x1F, 0x1F, 0x7F, 0x7F, 0x7F, 0x7F, 0x7F, 0x7F, 0x7F, 0x7F, 0x7F, 0x7F, 0x7F, 0x7F, 0x7F, 0x7F,
                 ;0x7F, 0x7F, 0x7F, 0x7F, 0x7F, 0x79, 0x79, 0x01, 0x01, 0x00, 0x00, 0x00, 0x00, 0x07, 0x0F, 0x1F,
                 ;0x1F, 0x1F, 0x1E, 0x1C, 0x00, 0x00, 0x00, 0x00, 0x00, 0x00, 0x00, 0x00, 0x00, 0x00, 0x00, 0x00,
                 ;0x00, 0x00, 0x00, 0x00, 0x00, 0x00, 0x00, 0x00,
                 ;};
                 ;
                 ;flash unsigned char imagen11 [] = {
                 ;0x54, 0x00, 0x30, 0x00,
                 ;0x00, 0x00, 0x00, 0x80, 0x80, 0x60, 0x60, 0x60, 0x80, 0x80, 0x00, 0x00, 0x00, 0x00, 0x00, 0x80,
                 ;0x60, 0x60, 0x80, 0x00, 0x00, 0xE0, 0xE0, 0xE0, 0x00, 0x00, 0x00, 0x00, 0x00, 0xE0, 0xE0, 0xE0,
                 ;0x00, 0x00, 0x00, 0x00, 0xE0, 0x60, 0x60, 0x60, 0x60, 0x60, 0x00, 0x00, 0xE0, 0x80, 0x80, 0x00,
                 ;0x00, 0x00, 0xE0, 0xE0, 0x00, 0x00, 0x00, 0xE0, 0xE0, 0x60, 0x60, 0x60, 0x60, 0x00, 0x00, 0x80,
                 ;0x80, 0x60, 0x60, 0x60, 0x80, 0x00, 0x00, 0x60, 0x60, 0x60, 0xE0, 0xE0, 0x60, 0x60, 0x60, 0x00,
                 ;0x00, 0x00, 0x00, 0x00, 0x00, 0x00, 0x00, 0x7F, 0x7F, 0x80, 0x8C, 0x8C, 0xFC, 0xFC, 0x00, 0xE0,
                 ;0xE0, 0x1C, 0x1C, 0x13, 0x10, 0x10, 0x1F, 0xE0, 0xE0, 0xFF, 0xFF, 0x00, 0x7F, 0x7F, 0x80, 0x7F,
                 ;0x7F, 0x00, 0x00, 0xFF, 0x00, 0x00, 0x00, 0x00, 0xFF, 0x8C, 0x8C, 0x8C, 0x80, 0x80, 0x00, 0x00,
                 ;0xFF, 0x03, 0x03, 0x0C, 0x70, 0x70, 0xFF, 0xFF, 0x00, 0x00, 0x00, 0xFF, 0xFF, 0x8C, 0x8C, 0x8C,
                 ;0x80, 0x00, 0x00, 0x63, 0x63, 0x8C, 0x8C, 0x8C, 0x70, 0x00, 0x00, 0x00, 0x00, 0x00, 0xFF, 0xFF,
                 ;0x00, 0x00, 0x00, 0x00, 0x00, 0x00, 0x00, 0x00, 0x00, 0x00, 0x00, 0x00, 0x00, 0x01, 0x01, 0x01,
                 ;0x01, 0x01, 0x00, 0x01, 0x01, 0x00, 0x00, 0x00, 0x00, 0x00, 0x00, 0x01, 0x01, 0x01, 0x01, 0x00,
                 ;0x00, 0x00, 0x01, 0x00, 0x00, 0x00, 0x00, 0x01, 0x00, 0x00, 0x00, 0x00, 0x01, 0x01, 0x01, 0x01,
                 ;0x01, 0x01, 0x00, 0x00, 0x01, 0x00, 0x00, 0x00, 0x00, 0x00, 0x01, 0x01, 0x00, 0x00, 0x00, 0x01,
                 ;0x01, 0x01, 0x01, 0x01, 0x01, 0x00, 0x00, 0x00, 0x00, 0x01, 0x01, 0x01, 0x00, 0x00, 0x00, 0x00,
                 ;0x00, 0x00, 0x01, 0x01, 0x00, 0x00, 0x00, 0x00, 0x00, 0x00, 0x00, 0x00, 0x00, 0x00, 0x00, 0x00,
                 ;0x00, 0x00, 0x00, 0x00, 0x00, 0x00, 0x00, 0x00, 0x00, 0x00, 0x00, 0x00, 0x00, 0x00, 0x00, 0x00,
                 ;0x00, 0x00, 0x00, 0x00, 0x00, 0x00, 0x00, 0x00, 0x00, 0x00, 0x00, 0x00, 0xF0, 0xF0, 0x30, 0x30,
                 ;0x30, 0x30, 0x30, 0xC0, 0x00, 0x00, 0x00, 0x00, 0xC0, 0x30, 0x30, 0xC0, 0x00, 0x00, 0x00, 0x00,
                 ;0xF0, 0x00, 0x00, 0x00, 0x00, 0x00, 0x00, 0x00, 0x00, 0x00, 0x00, 0x00, 0x00, 0x00, 0x00, 0x00,
                 ;0x00, 0x00, 0x00, 0x00, 0x00, 0x00, 0x00, 0x00, 0x00, 0x00, 0x00, 0x00, 0x00, 0x00, 0x00, 0x00,
                 ;0x00, 0x00, 0x00, 0x00, 0x00, 0x00, 0x00, 0x00, 0x00, 0x00, 0x00, 0x00, 0x00, 0x00, 0x00, 0x00,
                 ;0x00, 0x00, 0x00, 0x00, 0x00, 0x00, 0x00, 0x00, 0x00, 0x00, 0x00, 0x00, 0x00, 0x00, 0x00, 0x00,
                 ;0xFF, 0xFF, 0x06, 0x06, 0x06, 0x06, 0x06, 0x01, 0xF0, 0xF0, 0x0E, 0x0E, 0x09, 0x08, 0x08, 0x0F,
                 ;0xF0, 0xF0, 0x00, 0x00, 0xFF, 0x00, 0x00, 0x00, 0x00, 0x00, 0x00, 0x00, 0x00, 0x00, 0x00, 0x00,
                 ;0x00, 0x00, 0x00, 0x00, 0x00, 0x00, 0x00, 0x00, 0x00, 0x00, 0x00, 0x00, 0x00, 0x00, 0x00, 0x00,
                 ;0x00, 0x00, 0x00, 0x00, 0x00, 0x00, 0x00, 0x00, 0x00, 0x00, 0x00, 0x00, 0x00, 0x00, 0x00, 0x00,
                 ;0x00, 0x00, 0x00, 0x00, 0x00, 0x00, 0x00, 0x00, 0x00, 0x00, 0x00, 0x00, 0x00, 0x00, 0x00, 0x00,
                 ;0x00, 0x00, 0x00, 0x00, 0x00, 0x00, 0x00, 0x00, 0x00, 0x00, 0x00, 0x00, 0x00, 0x00, 0x00, 0x00,
                 ;0x00, 0x00, 0x00, 0x00, 0x00, 0x00, 0x00, 0x00, 0x00, 0x00, 0x00, 0x00, 0x00, 0x00, 0x00, 0x00,
                 ;0x00, 0x00, 0x00, 0x00, 0x00, 0x00, 0x00, 0x00, 0x00, 0x00, 0x00, 0x00, 0x00, 0x00, 0x00, 0x00,
                 ;0x00, 0x00, 0x00, 0x00, 0x00, 0x00, 0x00, 0x00,
                 ;};
                 ;
                 ;flash unsigned char imagen2 [] = {
                 ;0x54, 0x00, 0x30, 0x00,
                 ;0x00, 0x00, 0x00, 0x00, 0x00, 0x00, 0x00, 0x00, 0x00, 0x00, 0x00, 0x00, 0x00, 0x00, 0x00, 0x00,
                 ;0x00, 0x00, 0x00, 0x00, 0x00, 0x00, 0x00, 0x00, 0x00, 0x00, 0x00, 0x00, 0x00, 0x00, 0x00, 0x00,
                 ;0x00, 0x00, 0x80, 0x80, 0x60, 0x60, 0xF8, 0xF8, 0xE0, 0xE0, 0x80, 0x80, 0x00, 0x00, 0x00, 0x00,
                 ;0x00, 0x00, 0x00, 0x00, 0x00, 0x00, 0x00, 0x00, 0x00, 0x00, 0x00, 0x00, 0x00, 0x00, 0x00, 0x00,
                 ;0x00, 0x00, 0x00, 0x00, 0x00, 0x00, 0x00, 0x00, 0x00, 0x00, 0x00, 0x00, 0x00, 0x00, 0x00, 0x00,
                 ;0x00, 0x00, 0x00, 0x00, 0x00, 0x00, 0x00, 0x00, 0x00, 0x00, 0x00, 0x00, 0x00, 0x00, 0x00, 0x00,
                 ;0x00, 0x80, 0x80, 0xE0, 0xE0, 0xE0, 0xE0, 0xE0, 0xE0, 0xE0, 0xE0, 0xE0, 0xE0, 0xE0, 0x18, 0x98,
                 ;0x98, 0x98, 0x98, 0x98, 0x98, 0x98, 0xFF, 0xFF, 0xE0, 0xF0, 0x9F, 0x9F, 0xFF, 0xFF, 0xFF, 0xFF,
                 ;0xF8, 0x98, 0x98, 0x98, 0x98, 0x98, 0x98, 0x98, 0xE0, 0xE0, 0xE0, 0xE0, 0xE0, 0xE0, 0xE0, 0xE0,
                 ;0xE0, 0xE0, 0xE0, 0x80, 0x80, 0x00, 0x00, 0x00, 0x00, 0x00, 0x00, 0x00, 0x00, 0x00, 0x00, 0x00,
                 ;0x00, 0x00, 0x00, 0x00, 0x00, 0x00, 0x00, 0x00, 0x00, 0x00, 0x00, 0x00, 0x00, 0x00, 0x00, 0x00,
                 ;0x00, 0x00, 0x00, 0x00, 0x00, 0x07, 0x07, 0x1F, 0x1F, 0x1B, 0x1F, 0x1F, 0x1F, 0x1F, 0x1F, 0x1F,
                 ;0x6F, 0x7F, 0x7B, 0x7F, 0x6F, 0x7F, 0xFF, 0xFF, 0xFF, 0xFF, 0xFF, 0xFF, 0x3F, 0x3F, 0xFF, 0xFC,
                 ;0xFF, 0xFF, 0xFF, 0xFF, 0xFF, 0xEF, 0xFF, 0xFF, 0x7F, 0x6F, 0x7F, 0x7B, 0x7F, 0x6F, 0x7F, 0x1F,
                 ;0x1F, 0x1F, 0x1F, 0x1F, 0x1F, 0x1B, 0x1F, 0x07, 0x07, 0x00, 0x00, 0x00, 0x00, 0x00, 0x00, 0x00,
                 ;0x00, 0x00, 0x00, 0x00, 0x00, 0x00, 0x00, 0x00, 0x00, 0x00, 0x00, 0x00, 0x00, 0x00, 0x00, 0x00,
                 ;0x00, 0x00, 0x00, 0x00, 0x00, 0x00, 0x00, 0x00, 0x00, 0x00, 0x00, 0x00, 0x00, 0x00, 0x00, 0x00,
                 ;0x00, 0x00, 0x00, 0x00, 0x00, 0x00, 0x00, 0x00, 0x00, 0x00, 0x01, 0x01, 0x01, 0x01, 0x07, 0x07,
                 ;0xF8, 0xF8, 0xFF, 0xBF, 0xFF, 0xFF, 0x0F, 0x0F, 0x03, 0x01, 0x01, 0x01, 0x00, 0x00, 0x00, 0x00,
                 ;0x00, 0x00, 0x00, 0x00, 0x00, 0x00, 0x00, 0x00, 0x00, 0x00, 0x00, 0x00, 0x00, 0x00, 0x00, 0x00,
                 ;0x00, 0x00, 0x00, 0x00, 0x00, 0x00, 0x00, 0x00, 0x00, 0x00, 0x00, 0x00, 0x00, 0x00, 0x00, 0x00,
                 ;0x00, 0x00, 0x00, 0x00, 0x00, 0x00, 0x00, 0x00, 0x00, 0x00, 0x00, 0x00, 0x00, 0x00, 0x00, 0x00,
                 ;0x00, 0x00, 0x00, 0x00, 0x00, 0x00, 0x00, 0x00, 0x00, 0x00, 0x00, 0x00, 0x00, 0x00, 0x00, 0x00,
                 ;0xC0, 0xC0, 0xC0, 0xC0, 0xFF, 0xFF, 0x0F, 0x0F, 0xFF, 0xFF, 0xC0, 0xC0, 0xC0, 0xC0, 0x00, 0x00,
                 ;0x00, 0x00, 0x00, 0x00, 0x00, 0x00, 0x00, 0x00, 0x00, 0x00, 0x00, 0x00, 0x00, 0x00, 0x00, 0x00,
                 ;0x00, 0x00, 0x00, 0x00, 0x00, 0x00, 0x00, 0x00, 0x00, 0x00, 0x00, 0x00, 0x00, 0x00, 0x00, 0x00,
                 ;0x00, 0x00, 0x00, 0x00, 0x00, 0x00, 0x00, 0x00, 0x00, 0x00, 0x00, 0x00, 0x00, 0x00, 0x00, 0x00,
                 ;0x00, 0x00, 0x00, 0x00, 0x00, 0x00, 0x00, 0x00, 0x00, 0x00, 0x00, 0x00, 0x00, 0x00, 0x00, 0x00,
                 ;0x00, 0x00, 0x0F, 0x0F, 0x0F, 0x0F, 0x0F, 0x0F, 0x0F, 0x0F, 0x3F, 0x3F, 0x0F, 0x0F, 0x0F, 0x0F,
                 ;0x0F, 0x0F, 0x0F, 0x0F, 0x00, 0x00, 0x00, 0x00, 0x00, 0x00, 0x00, 0x00, 0x00, 0x00, 0x00, 0x00,
                 ;0x00, 0x00, 0x00, 0x00, 0x00, 0x00, 0x00, 0x00, 0x00, 0x00, 0x00, 0x00, 0x00, 0x00, 0x00, 0x00,
                 ;0x00, 0x00, 0x00, 0x00, 0x00, 0x00, 0x00, 0x00,
                 ;};
                 ;
                 ;flash unsigned char imagen3 [] = {
                 ;0x54, 0x00, 0x30, 0x00,
                 ;0x00, 0x00, 0x00, 0x00, 0x00, 0x00, 0x00, 0x00, 0x00, 0x00, 0x00, 0x00, 0x00, 0x00, 0x00, 0x00,
                 ;0x00, 0x00, 0x00, 0x00, 0x00, 0x00, 0x00, 0x00, 0x00, 0x00, 0x00, 0x00, 0x00, 0x00, 0x00, 0x04,
                 ;0x04, 0x04, 0x84, 0x84, 0xE4, 0xE4, 0xFC, 0xFC, 0xE4, 0xE4, 0x84, 0x84, 0x04, 0x04, 0x04, 0x04,
                 ;0x00, 0x00, 0x00, 0x00, 0x00, 0x00, 0x00, 0x00, 0x00, 0x00, 0x00, 0x00, 0x00, 0x00, 0x00, 0x00,
                 ;0x00, 0x00, 0x00, 0x00, 0x00, 0x00, 0x00, 0x00, 0x00, 0x00, 0x00, 0x00, 0x00, 0x00, 0x00, 0x00,
                 ;0x00, 0x00, 0x00, 0x00, 0x00, 0x00, 0x00, 0x00, 0x00, 0x00, 0x00, 0x00, 0x00, 0x00, 0x00, 0x00,
                 ;0x00, 0x80, 0x80, 0xE0, 0xE0, 0xFC, 0xF0, 0xF0, 0xF0, 0xFC, 0xF0, 0xE0, 0xE0, 0xF0, 0x98, 0x98,
                 ;0x98, 0x98, 0x98, 0x98, 0x98, 0x98, 0xFF, 0xE1, 0xC1, 0xC0, 0x7F, 0x7F, 0xC0, 0xC1, 0xE1, 0xFF,
                 ;0xF8, 0x98, 0x98, 0x98, 0x98, 0x98, 0x98, 0x98, 0xE0, 0xE0, 0xE0, 0xF0, 0xFC, 0xF0, 0xF0, 0xFC,
                 ;0xE0, 0xE0, 0xE0, 0x80, 0x80, 0x00, 0x00, 0x00, 0x00, 0x00, 0x00, 0x00, 0x00, 0x00, 0x00, 0x00,
                 ;0x00, 0x00, 0x00, 0x00, 0x00, 0x00, 0x00, 0x00, 0x00, 0x00, 0x00, 0x00, 0x00, 0x00, 0x00, 0x00,
                 ;0x00, 0x00, 0x00, 0x00, 0x00, 0x07, 0x07, 0x1F, 0x1F, 0x1F, 0x1F, 0x1F, 0x1F, 0x1F, 0x1F, 0x1F,
                 ;0x6F, 0x7F, 0x7F, 0x7F, 0x7F, 0x7F, 0xFF, 0xFF, 0xFF, 0xFF, 0xFF, 0xF7, 0xE7, 0x80, 0x00, 0x00,
                 ;0x80, 0xE7, 0xF7, 0xFF, 0xFF, 0xFF, 0xFF, 0xFF, 0x7F, 0x7F, 0x7F, 0x7F, 0x7F, 0x7F, 0x7F, 0x1F,
                 ;0x1F, 0x1F, 0x1F, 0x1F, 0x1F, 0x1F, 0x1F, 0x07, 0x07, 0x00, 0x00, 0x00, 0x00, 0x00, 0x00, 0x00,
                 ;0x00, 0x00, 0x00, 0x00, 0x00, 0x00, 0x00, 0x00, 0x00, 0x00, 0x00, 0x00, 0x00, 0x00, 0x00, 0x00,
                 ;0x00, 0x00, 0x00, 0x00, 0x00, 0x00, 0x00, 0x00, 0x00, 0x00, 0x00, 0x00, 0x00, 0x00, 0x00, 0x00,
                 ;0x00, 0x00, 0x00, 0x00, 0x00, 0x00, 0x00, 0x00, 0x00, 0x00, 0x01, 0x01, 0x01, 0x01, 0x07, 0x07,
                 ;0xFF, 0xFF, 0xFF, 0xFF, 0xFF, 0xFF, 0x0F, 0x0F, 0x03, 0x01, 0x01, 0x01, 0x00, 0x00, 0x00, 0x00,
                 ;0x00, 0x00, 0x00, 0x00, 0x00, 0x00, 0x00, 0x00, 0x00, 0x00, 0x00, 0x00, 0x00, 0x00, 0x00, 0x00,
                 ;0x00, 0x00, 0x00, 0x00, 0x00, 0x00, 0x00, 0x00, 0x00, 0x00, 0x00, 0x00, 0x00, 0x00, 0x00, 0x00,
                 ;0x00, 0x00, 0x00, 0x00, 0x00, 0x00, 0x00, 0x00, 0x00, 0x00, 0x00, 0x00, 0x00, 0x00, 0x00, 0x00,
                 ;0x00, 0x00, 0x00, 0x00, 0x00, 0x00, 0x00, 0x00, 0x00, 0x00, 0x00, 0x00, 0x00, 0x00, 0x00, 0x00,
                 ;0xC0, 0xC0, 0xC0, 0xC0, 0xFF, 0xFF, 0x0F, 0x0F, 0xFF, 0xFF, 0xC0, 0xC0, 0xC0, 0xC0, 0x00, 0x00,
                 ;0x00, 0x00, 0x00, 0x00, 0x00, 0x00, 0x00, 0x00, 0x00, 0x00, 0x00, 0x00, 0x00, 0x00, 0x00, 0x00,
                 ;0x00, 0x00, 0x00, 0x00, 0x00, 0x00, 0x00, 0x00, 0x00, 0x00, 0x00, 0x00, 0x00, 0x00, 0x00, 0x00,
                 ;0x00, 0x00, 0x00, 0x00, 0x00, 0x00, 0x00, 0x00, 0x00, 0x00, 0x00, 0x00, 0x00, 0x00, 0x00, 0x00,
                 ;0x00, 0x00, 0x00, 0x00, 0x00, 0x00, 0x00, 0x00, 0x00, 0x00, 0x00, 0x00, 0x00, 0x00, 0x00, 0x00,
                 ;0x00, 0x00, 0x0F, 0x0F, 0x0F, 0x0F, 0x0F, 0x0F, 0x0F, 0x0F, 0x3F, 0x3F, 0x0F, 0x0F, 0x0F, 0x0F,
                 ;0x0F, 0x0F, 0x0F, 0x0F, 0x00, 0x00, 0x00, 0x00, 0x00, 0x00, 0x00, 0x00, 0x00, 0x00, 0x00, 0x00,
                 ;0x00, 0x00, 0x00, 0x00, 0x00, 0x00, 0x00, 0x00, 0x00, 0x00, 0x00, 0x00, 0x00, 0x00, 0x00, 0x00,
                 ;0x00, 0x00, 0x00, 0x00, 0x00, 0x00, 0x00, 0x00,
                 ;};
                 ;
                 ;flash unsigned char imagen4 [] = {
                 ;0x54, 0x00, 0x30, 0x00,
                 ;0x00, 0x00, 0x00, 0x00, 0x00, 0x00, 0x80, 0x80, 0x80, 0x80, 0xE0, 0xE0, 0xE0, 0xE0, 0x00, 0x00,
                 ;0x00, 0x00, 0x00, 0x00, 0x00, 0x80, 0x80, 0xE0, 0xE0, 0xE0, 0xE0, 0xE0, 0xE0, 0xE0, 0xE0, 0x80,
                 ;0x80, 0x00, 0x00, 0x00, 0x00, 0x00, 0x00, 0x00, 0x00, 0x00, 0x00, 0x00, 0x00, 0xE0, 0xE0, 0xE0,
                 ;0xE0, 0xE0, 0xE0, 0xE0, 0xE0, 0xE0, 0xE0, 0x00, 0x00, 0x00, 0x00, 0x00, 0x00, 0xE0, 0xE0, 0xE0,
                 ;0xE0, 0xE0, 0xE0, 0xE0, 0xE0, 0xE0, 0xE0, 0xE0, 0xE0, 0xE0, 0xE0, 0xE0, 0x00, 0x00, 0x00, 0x00,
                 ;0x00, 0x00, 0x00, 0x00, 0x00, 0x00, 0x7E, 0x7E, 0x7E, 0x7E, 0x7F, 0x7F, 0xFF, 0xFF, 0xFF, 0xFF,
                 ;0xFF, 0xFF, 0x00, 0x00, 0x00, 0x00, 0x00, 0x00, 0xFE, 0xFF, 0xFF, 0xFF, 0xFF, 0x01, 0x01, 0x01,
                 ;0x01, 0xFF, 0xFF, 0xFF, 0xFF, 0xFE, 0xFE, 0x00, 0x00, 0x00, 0x00, 0x00, 0x00, 0x00, 0x00, 0xF8,
                 ;0xF8, 0xFF, 0xFF, 0xFF, 0xFF, 0xFF, 0xFF, 0xFF, 0xFF, 0xFF, 0xFF, 0x00, 0x00, 0x00, 0x00, 0x00,
                 ;0x00, 0xFF, 0xFF, 0xFF, 0xFF, 0xFF, 0x01, 0x01, 0x81, 0x81, 0x81, 0x81, 0x81, 0x81, 0x01, 0x01,
                 ;0x00, 0x00, 0x00, 0x00, 0x00, 0x00, 0x00, 0x00, 0x00, 0x00, 0x00, 0x00, 0x00, 0x00, 0x00, 0x00,
                 ;0xFF, 0xFF, 0xFF, 0xFF, 0xFF, 0xFF, 0x00, 0x00, 0x00, 0x00, 0x00, 0x00, 0xFF, 0xFF, 0xFF, 0xFF,
                 ;0xFF, 0x00, 0x00, 0x00, 0x00, 0xFF, 0xFF, 0xFF, 0xFF, 0xFF, 0xFF, 0x00, 0x00, 0x00, 0x00, 0x00,
                 ;0x00, 0xF8, 0xF8, 0xFF, 0xFF, 0xFF, 0xFF, 0x01, 0x01, 0xFF, 0xFF, 0xFF, 0xFF, 0xFF, 0xFF, 0x00,
                 ;0x00, 0x00, 0x00, 0x00, 0x00, 0xFF, 0xFF, 0xFF, 0xFF, 0xFF, 0x06, 0x06, 0x07, 0x07, 0xFF, 0xFF,
                 ;0xFF, 0xFF, 0xFE, 0xFE, 0x00, 0x00, 0x00, 0x00, 0x00, 0x00, 0x00, 0x00, 0x00, 0x00, 0x00, 0x00,
                 ;0x00, 0x00, 0x00, 0x00, 0xFF, 0xFF, 0xFF, 0xFF, 0xFF, 0xFF, 0x00, 0x00, 0x00, 0x00, 0x00, 0x00,
                 ;0x0F, 0x7F, 0x7F, 0x7F, 0x7F, 0x7C, 0x7C, 0x7C, 0x7C, 0xFF, 0xFF, 0xFF, 0xFF, 0xFF, 0xFF, 0x00,
                 ;0x00, 0x00, 0x00, 0xFC, 0xFC, 0xFF, 0xFF, 0xFF, 0xFF, 0xF0, 0xF0, 0xF0, 0xF0, 0xFF, 0xFF, 0xFF,
                 ;0xFF, 0xFF, 0xFF, 0xF0, 0xF0, 0x00, 0x00, 0x00, 0x00, 0xF0, 0xF0, 0xF0, 0xF0, 0xF0, 0x00, 0x00,
                 ;0x00, 0x00, 0xFF, 0xFF, 0xFF, 0xFF, 0xFF, 0xFF, 0x00, 0x00, 0x00, 0x00, 0x00, 0x00, 0x00, 0x00,
                 ;0x00, 0x00, 0x00, 0x00, 0x00, 0x00, 0x00, 0x00, 0xFF, 0xFF, 0xFF, 0xFF, 0xFF, 0xFF, 0x00, 0x00,
                 ;0x00, 0x00, 0x00, 0x00, 0x7E, 0xFE, 0xFE, 0xFE, 0xFE, 0x80, 0x80, 0x80, 0x80, 0xFF, 0xFF, 0xFF,
                 ;0xFF, 0x7F, 0x7F, 0x00, 0x00, 0x00, 0x00, 0x07, 0x07, 0x07, 0x07, 0x07, 0x07, 0x07, 0x07, 0x07,
                 ;0x07, 0xFF, 0xFF, 0xFF, 0xFF, 0xFF, 0xFF, 0x07, 0x07, 0x00, 0x00, 0x00, 0x00, 0x7F, 0x7F, 0xFF,
                 ;0xFF, 0xFF, 0x80, 0x80, 0x80, 0x80, 0xFF, 0xFF, 0xFF, 0xFF, 0x7F, 0x7F, 0x00, 0x00, 0x00, 0x00,
                 ;0x00, 0x00, 0x00, 0x00, 0x00, 0x00, 0x00, 0x00, 0x00, 0x00, 0x00, 0x00, 0x07, 0x07, 0x07, 0x07,
                 ;0x07, 0x07, 0x00, 0x00, 0x00, 0x00, 0x00, 0x00, 0x00, 0x01, 0x01, 0x07, 0x07, 0x07, 0x07, 0x07,
                 ;0x07, 0x07, 0x07, 0x01, 0x01, 0x00, 0x00, 0x00, 0x00, 0x00, 0x00, 0x00, 0x00, 0x00, 0x00, 0x00,
                 ;0x00, 0x00, 0x00, 0x00, 0x00, 0x07, 0x07, 0x07, 0x07, 0x07, 0x07, 0x00, 0x00, 0x00, 0x00, 0x00,
                 ;0x00, 0x00, 0x00, 0x01, 0x07, 0x07, 0x07, 0x07, 0x07, 0x07, 0x07, 0x07, 0x01, 0x01, 0x00, 0x00,
                 ;0x00, 0x00, 0x00, 0x00, 0x00, 0x00, 0x00, 0x00,
                 ;};
                 ;
                 ;flash unsigned char imagen5 [] = {
                 ;0x54, 0x00, 0x30, 0x00,
                 ;0x00, 0x00, 0x00, 0x00, 0x00, 0x00, 0x00, 0x80, 0x80, 0x80, 0x80, 0x80, 0x80, 0x80, 0x80, 0x80,
                 ;0x80, 0x00, 0x00, 0x00, 0x00, 0x00, 0x00, 0x00, 0x00, 0x00, 0x00, 0x00, 0x00, 0x00, 0x80, 0x80,
                 ;0x00, 0x00, 0x00, 0x00, 0x00, 0x00, 0x00, 0x00, 0x00, 0x00, 0x80, 0x80, 0x00, 0x00, 0x00, 0x00,
                 ;0x00, 0x00, 0x00, 0x00, 0x00, 0x00, 0x00, 0x00, 0x00, 0x80, 0x80, 0x00, 0x00, 0x00, 0x00, 0x00,
                 ;0x80, 0x80, 0x80, 0x80, 0x80, 0x80, 0x80, 0x80, 0x80, 0x80, 0x80, 0x80, 0x80, 0x00, 0x00, 0x00,
                 ;0x00, 0x00, 0x00, 0x00, 0x00, 0x00, 0x00, 0x00, 0x00, 0xCE, 0xCE, 0x01, 0x01, 0x01, 0x01, 0x01,
                 ;0x31, 0x31, 0x31, 0x31, 0x31, 0xB2, 0xB2, 0xB2, 0x00, 0x00, 0x00, 0x00, 0x00, 0xC0, 0xC0, 0x4E,
                 ;0x4E, 0x4E, 0x43, 0x43, 0x4C, 0x4C, 0x4C, 0xC0, 0xC0, 0x00, 0x00, 0x00, 0x00, 0x00, 0xFF, 0xFF,
                 ;0x02, 0x02, 0x02, 0x70, 0x70, 0x00, 0x00, 0x00, 0x00, 0x00, 0x02, 0x02, 0x02, 0xFF, 0xFF, 0x00,
                 ;0x00, 0x00, 0x00, 0x00, 0xFF, 0xFF, 0xFF, 0x31, 0x31, 0x31, 0x31, 0x31, 0x31, 0x31, 0x31, 0x31,
                 ;0x31, 0x00, 0x00, 0x00, 0x00, 0x00, 0x00, 0x00, 0x00, 0x00, 0x00, 0x00, 0x00, 0x01, 0x01, 0x06,
                 ;0x06, 0x06, 0x06, 0x06, 0x06, 0x06, 0x06, 0x06, 0x06, 0x01, 0x01, 0x01, 0x00, 0x00, 0x06, 0x06,
                 ;0x06, 0x01, 0x01, 0x00, 0x00, 0x00, 0x00, 0x00, 0x00, 0x00, 0x00, 0x01, 0x01, 0x06, 0x06, 0x06,
                 ;0x00, 0x00, 0x07, 0x07, 0x00, 0x00, 0x00, 0x00, 0x00, 0x06, 0x06, 0x06, 0x00, 0x00, 0x00, 0x00,
                 ;0x00, 0x07, 0x07, 0x00, 0x00, 0x00, 0x00, 0x00, 0x07, 0x07, 0x07, 0x06, 0x06, 0x06, 0x06, 0x06,
                 ;0x06, 0x06, 0x06, 0x06, 0x06, 0x00, 0x00, 0x00, 0x00, 0x00, 0x00, 0x00, 0x00, 0x00, 0x00, 0x00,
                 ;0x00, 0x80, 0x80, 0x60, 0x60, 0x60, 0x60, 0x60, 0x60, 0x60, 0x60, 0x60, 0x60, 0x80, 0x80, 0x80,
                 ;0x00, 0x00, 0x60, 0x60, 0x60, 0x80, 0x80, 0x00, 0x00, 0x00, 0x00, 0x00, 0x00, 0x00, 0x00, 0x80,
                 ;0x80, 0x60, 0x60, 0x60, 0x00, 0x00, 0xE0, 0xE0, 0x60, 0x60, 0x60, 0x60, 0x60, 0x60, 0x60, 0x60,
                 ;0x60, 0x60, 0x00, 0x00, 0x00, 0x00, 0x00, 0xE0, 0xE0, 0xE0, 0x60, 0x60, 0x60, 0x60, 0x60, 0x60,
                 ;0x60, 0xE0, 0xE0, 0xE0, 0x00, 0x00, 0x00, 0x00, 0x00, 0x00, 0x00, 0x00, 0x00, 0x00, 0x00, 0x00,
                 ;0x00, 0x00, 0x00, 0x00, 0x00, 0x41, 0x41, 0x80, 0x80, 0x80, 0x80, 0x80, 0x80, 0x80, 0x80, 0x80,
                 ;0x80, 0x41, 0x41, 0x41, 0x00, 0x00, 0x00, 0x00, 0x00, 0x03, 0x03, 0x70, 0x70, 0x70, 0x80, 0x80,
                 ;0x70, 0x70, 0x70, 0x03, 0x03, 0x00, 0x00, 0x00, 0x00, 0x00, 0xFF, 0xFF, 0x8C, 0x8C, 0x8C, 0x8C,
                 ;0x8C, 0x8C, 0x8C, 0x8C, 0x8C, 0x8C, 0x00, 0x00, 0x00, 0x00, 0x00, 0xFF, 0xFF, 0xFF, 0x0C, 0x0C,
                 ;0x0C, 0x0C, 0x0C, 0x3C, 0x3C, 0xCF, 0xCF, 0xCF, 0x00, 0x00, 0x00, 0x00, 0x00, 0x00, 0x00, 0x00,
                 ;0x00, 0x00, 0x00, 0x00, 0x00, 0x00, 0x00, 0x00, 0x00, 0x00, 0x00, 0x01, 0x01, 0x01, 0x01, 0x01,
                 ;0x01, 0x01, 0x01, 0x01, 0x01, 0x00, 0x00, 0x00, 0x00, 0x00, 0x00, 0x00, 0x00, 0x00, 0x00, 0x00,
                 ;0x00, 0x00, 0x01, 0x01, 0x00, 0x00, 0x00, 0x00, 0x00, 0x00, 0x00, 0x00, 0x00, 0x00, 0x01, 0x01,
                 ;0x01, 0x01, 0x01, 0x01, 0x01, 0x01, 0x01, 0x01, 0x01, 0x01, 0x00, 0x00, 0x00, 0x00, 0x00, 0x01,
                 ;0x01, 0x01, 0x00, 0x00, 0x00, 0x00, 0x00, 0x00, 0x00, 0x01, 0x01, 0x01, 0x00, 0x00, 0x00, 0x00,
                 ;0x00, 0x00, 0x00, 0x00, 0x00, 0x00, 0x00, 0x00,
                 ;};
                 ;
                 ;// -- Inicilizacion Funcion ADC -- //
                 ;// ADC Voltage Reference: AVCC pin
                 ;#define ADC_VREF_TYPE ((0<<REFS1) | (1<<REFS0) | (0<<ADLAR))
                 ;
                 ;// Read the AD conversion result
                 ;// Read Voltage=read_adc*(Vref/1024.0)
                 ;unsigned int read_adc(unsigned char adc_input)
                 ; 0000 00FC {
                 _read_adc:
                 ; .FSTART _read_adc
                 ; 0000 00FD     ADMUX=adc_input | ADC_VREF_TYPE;
00071d 93aa      	ST   -Y,R26
                 ;	adc_input -> Y+0
00071e 81e8      	LD   R30,Y
00071f 64e0      	ORI  R30,0x40
000720 93e0 007c 	STS  124,R30
                 ; 0000 00FE     // Delay needed for the stabilization of the ADC input voltage
                 ; 0000 00FF     delay_us(10);
                +
000722 e083     +LDI R24 , LOW ( 3 )
                +__DELAY_USB_LOOP :
000723 958a     +DEC R24
000724 f7f1     +BRNE __DELAY_USB_LOOP
                 	__DELAY_USB 3
                 ; 0000 0100     // Start the AD conversion
                 ; 0000 0101     ADCSRA|=(1<<ADSC);
000725 91e0 007a 	LDS  R30,122
000727 64e0      	ORI  R30,0x40
000728 93e0 007a 	STS  122,R30
                 ; 0000 0102     // Wait for the AD conversion to complete
                 ; 0000 0103     while ((ADCSRA & (1<<ADIF))==0);
                 _0x2A:
00072a 91e0 007a 	LDS  R30,122
00072c 71e0      	ANDI R30,LOW(0x10)
00072d f3e1      	BREQ _0x2A
                 ; 0000 0104     ADCSRA|=(1<<ADIF);
00072e 91e0 007a 	LDS  R30,122
000730 61e0      	ORI  R30,0x10
000731 93e0 007a 	STS  122,R30
                 ; 0000 0105     return ADCW;
000733 91e0 0078 	LDS  R30,120
000735 91f0 0079 	LDS  R31,120+1
000737 940c 0ceb 	JMP  _0x2120004
                 ; 0000 0106 }
                 ; .FEND
                 ;
                 ;// -- Variables adicionales -- //
                 ;unsigned int voltDigitalX;
                 ;unsigned int voltDigitalY;
                 ;int dis1 = 0, dis2 = 0, dis3 = 0, dis4 = 0, i, juego1 = 0, play = 0, vidas = 4;
                 
                 	.DSEG
                 ;unsigned char dato;
                 ;
                 ;void main(void)
                 ; 0000 010F {
                 
                 	.CSEG
                 _main:
                 ; .FSTART _main
                 ; 0000 0110     // -- Configuracion Display LCD Nokia -- //
                 ; 0000 0111     // Declare your local variables here
                 ; 0000 0112     // Variable used to store graphic display
                 ; 0000 0113     // controller initialization data
                 ; 0000 0114     GLCDINIT_t glcd_init_data;
                 ; 0000 0115 
                 ; 0000 0116     // Specify the current font for displaying text
                 ; 0000 0117     glcd_init_data.font=font5x7;
000739 9728      	SBIW R28,8
                 ;	glcd_init_data -> Y+0
00073a e6e8      	LDI  R30,LOW(_font5x7*2)
00073b e0f0      	LDI  R31,HIGH(_font5x7*2)
00073c 83e8      	ST   Y,R30
00073d 83f9      	STD  Y+1,R31
                 ; 0000 0118     // No function is used for reading
                 ; 0000 0119     // image data from external memory
                 ; 0000 011A     glcd_init_data.readxmem=NULL;
00073e e0e0      	LDI  R30,LOW(0)
00073f 83ea      	STD  Y+2,R30
000740 83eb      	STD  Y+2+1,R30
                 ; 0000 011B     // No function is used for writing
                 ; 0000 011C     // image data to external memory
                 ; 0000 011D     glcd_init_data.writexmem=NULL;
000741 83ec      	STD  Y+4,R30
000742 83ed      	STD  Y+4+1,R30
                 ; 0000 011E     // Set the LCD temperature coefficient
                 ; 0000 011F     glcd_init_data.temp_coef=PCD8544_DEFAULT_TEMP_COEF;
000743 81ee      	LDD  R30,Y+6
000744 7fec      	ANDI R30,LOW(0xFC)
000745 83ee      	STD  Y+6,R30
                 ; 0000 0120     // Set the LCD bias
                 ; 0000 0121     glcd_init_data.bias=PCD8544_DEFAULT_BIAS;
000746 7ee3      	ANDI R30,LOW(0xE3)
000747 60ec      	ORI  R30,LOW(0xC)
000748 83ee      	STD  Y+6,R30
                 ; 0000 0122     // Set the LCD contrast control voltage VLCD
                 ; 0000 0123     glcd_init_data.vlcd=PCD8544_DEFAULT_VLCD;
000749 81ef      	LDD  R30,Y+7
00074a 78e0      	ANDI R30,LOW(0x80)
00074b 63e2      	ORI  R30,LOW(0x32)
00074c 83ef      	STD  Y+7,R30
                 ; 0000 0124 
                 ; 0000 0125     glcd_init(&glcd_init_data);
00074d 01de      	MOVW R26,R28
00074e d23b      	RCALL _glcd_init
                 ; 0000 0126     glcd_putimagef(0,0, imagen11, GLCD_PUTCOPY);
00074f 940e 0eea 	CALL SUBOPT_0x0
000751 940e 0eee 	CALL SUBOPT_0x1
                 ; 0000 0127     delay_ms(1000);
000753 eea8      	LDI  R26,LOW(1000)
000754 e0b3      	LDI  R27,HIGH(1000)
000755 940e 0f88 	CALL _delay_ms
                 ; 0000 0128     glcd_putimagef(0,0, imagen1, GLCD_PUTCOPY);
000757 940e 0eea 	CALL SUBOPT_0x0
000759 e4ec      	LDI  R30,LOW(_imagen1*2)
00075a e0f2      	LDI  R31,HIGH(_imagen1*2)
00075b 940e 0ef5 	CALL SUBOPT_0x2
                 ; 0000 0129     delay_ms(5000);
                 ; 0000 012A 
                 ; 0000 012B     // -- Ajustes de ADC -- //
                 ; 0000 012C     // ADC initialization
                 ; 0000 012D     // ADC Clock frequency: 125.000 kHz
                 ; 0000 012E     // ADC Voltage Reference: AVCC pin
                 ; 0000 012F     // ADC Auto Trigger Source: ADC Stopped
                 ; 0000 0130     // Digital input buffers on ADC0: Off, ADC1: Off, ADC2: On, ADC3: On
                 ; 0000 0131     // ADC4: On, ADC5: On
                 ; 0000 0132     DIDR0=(0<<ADC5D) | (0<<ADC4D) | (0<<ADC3D) | (0<<ADC2D) | (1<<ADC1D) | (1<<ADC0D);
00075d e0e3      	LDI  R30,LOW(3)
00075e 93e0 007e 	STS  126,R30
                 ; 0000 0133     ADMUX=ADC_VREF_TYPE;
000760 e4e0      	LDI  R30,LOW(64)
000761 93e0 007c 	STS  124,R30
                 ; 0000 0134     ADCSRA=(1<<ADEN) | (0<<ADSC) | (0<<ADATE) | (0<<ADIF) | (0<<ADIE) | (0<<ADPS2) | (1<<ADPS1) | (1<<ADPS0);
000763 e8e3      	LDI  R30,LOW(131)
000764 93e0 007a 	STS  122,R30
                 ; 0000 0135     ADCSRB=(0<<ADTS2) | (0<<ADTS1) | (0<<ADTS0);
000766 e0e0      	LDI  R30,LOW(0)
000767 93e0 007b 	STS  123,R30
                 ; 0000 0136 
                 ; 0000 0137      // USART initialization
                 ; 0000 0138     // Communication Parameters: 8 Data, 1 Stop, No Parity
                 ; 0000 0139     // USART Receiver: On
                 ; 0000 013A     // USART Transmitter: On
                 ; 0000 013B     // USART0 Mode: Asynchronous
                 ; 0000 013C     // USART Baud Rate: 56000 (Double Speed Mode)
                 ; 0000 013D     UCSR0A=(0<<RXC0) | (0<<TXC0) | (0<<UDRE0) | (0<<FE0) | (0<<DOR0) | (0<<UPE0) | (1<<U2X0) | (0<<MPCM0);
000769 e0e2      	LDI  R30,LOW(2)
00076a 93e0 00c0 	STS  192,R30
                 ; 0000 013E     UCSR0B=(0<<RXCIE0) | (0<<TXCIE0) | (0<<UDRIE0) | (1<<RXEN0) | (1<<TXEN0) | (0<<UCSZ02) | (0<<RXB80) | (0<<TXB80);
00076c e1e8      	LDI  R30,LOW(24)
00076d 93e0 00c1 	STS  193,R30
                 ; 0000 013F     UCSR0C=(0<<UMSEL01) | (0<<UMSEL00) | (0<<UPM01) | (0<<UPM00) | (0<<USBS0) | (1<<UCSZ01) | (1<<UCSZ00) | (0<<UCPOL0);
00076f e0e6      	LDI  R30,LOW(6)
000770 93e0 00c2 	STS  194,R30
                 ; 0000 0140     UBRR0H=0x00;
000772 e0e0      	LDI  R30,LOW(0)
000773 93e0 00c5 	STS  197,R30
                 ; 0000 0141     UBRR0L=0x11;
000775 e1e1      	LDI  R30,LOW(17)
000776 93e0 00c4 	STS  196,R30
                 ; 0000 0142 
                 ; 0000 0143     // Coonfiguracion CTC 8MHz
                 ; 0000 0144     CLKPR=0X80;
000778 e8e0      	LDI  R30,LOW(128)
000779 93e0 0061 	STS  97,R30
                 ; 0000 0145     CLKPR=0;
00077b e0e0      	LDI  R30,LOW(0)
00077c 93e0 0061 	STS  97,R30
                 ; 0000 0146 
                 ; 0000 0147     // -- Definicion de Inputs digitales -- //
                 ; 0000 0148     PORTC.5 = 1;
00077e 9a45      	SBI  0x8,5
                 ; 0000 0149     PORTC.4 = 1;
00077f 9a44      	SBI  0x8,4
                 ; 0000 014A     PORTC.3 = 1;
000780 9a43      	SBI  0x8,3
                 ; 0000 014B     PORTC.2 = 1;
000781 9a42      	SBI  0x8,2
                 ; 0000 014C 
                 ; 0000 014D     // -- Definicion de Outputs  -- //
                 ; 0000 014E     DDRD.7 = 1;
000782 9a57      	SBI  0xA,7
                 ; 0000 014F     DDRD.6 = 1;
000783 9a56      	SBI  0xA,6
                 ; 0000 0150     DDRB.2 = 1;
000784 9a22      	SBI  0x4,2
                 ; 0000 0151     DDRB.0 = 1;
000785 9a20      	SBI  0x4,0
                 ; 0000 0152     DDRD.5 = 1;
000786 9a55      	SBI  0xA,5
                 ; 0000 0153 
                 ; 0000 0154     while (1)
                 _0x40:
                 ; 0000 0155     {
                 ; 0000 0156         // -- Operacion de LCD Nokia -- //
                 ; 0000 0157         if(juego1 == 0){
000787 91e0 03d8 	LDS  R30,_juego1
000789 91f0 03d9 	LDS  R31,_juego1+1
00078b 9730      	SBIW R30,0
00078c f421      	BRNE _0x43
                 ; 0000 0158             glcd_putimagef(0,0, imagen11, GLCD_PUTCOPY);
00078d 940e 0eea 	CALL SUBOPT_0x0
00078f 940e 0eee 	CALL SUBOPT_0x1
                 ; 0000 0159         }
                 ; 0000 015A         // -- lectrua eje x del joystick -- //
                 ; 0000 015B         voltDigitalX = read_adc(0);
                 _0x43:
000791 e0a0      	LDI  R26,LOW(0)
000792 df8a      	RCALL _read_adc
000793 93e0 03ca 	STS  _voltDigitalX,R30
000795 93f0 03cb 	STS  _voltDigitalX+1,R31
                 ; 0000 015C 
                 ; 0000 015D 
                 ; 0000 015E         // -- Lectrua eje y del joystick -- //
                 ; 0000 015F         voltDigitalY = read_adc(1);
000797 e0a1      	LDI  R26,LOW(1)
000798 df84      	RCALL _read_adc
000799 93e0 03cc 	STS  _voltDigitalY,R30
00079b 93f0 03cd 	STS  _voltDigitalY+1,R31
                 ; 0000 0160 
                 ; 0000 0161         // -- Movimiento por joystick -- //
                 ; 0000 0162         if (voltDigitalX<300){
00079d 91a0 03ca 	LDS  R26,_voltDigitalX
00079f 91b0 03cb 	LDS  R27,_voltDigitalX+1
0007a1 32ac      	CPI  R26,LOW(0x12C)
0007a2 e0e1      	LDI  R30,HIGH(0x12C)
0007a3 07be      	CPC  R27,R30
0007a4 f430      	BRSH _0x44
                 ; 0000 0163             UART_write_txt("I");
                +
0007a5 e0a0     +LDI R26 , LOW ( _0x45 + ( 0 ) )
0007a6 e0b3     +LDI R27 , HIGH ( _0x45 + ( 0 ) )
                 	__POINTW2MN _0x45,0
0007a7 df64      	RCALL _UART_write_txt
                 ; 0000 0164             UART_write_txt("\n\r");
                +
0007a8 e0a2     +LDI R26 , LOW ( _0x45 + ( 2 ) )
0007a9 e0b3     +LDI R27 , HIGH ( _0x45 + ( 2 ) )
                 	__POINTW2MN _0x45,2
0007aa c00d      	RJMP _0xAF
                 ; 0000 0165         }
                 ; 0000 0166         else if(voltDigitalX>700){
                 _0x44:
0007ab 91a0 03ca 	LDS  R26,_voltDigitalX
0007ad 91b0 03cb 	LDS  R27,_voltDigitalX+1
0007af 3bad      	CPI  R26,LOW(0x2BD)
0007b0 e0e2      	LDI  R30,HIGH(0x2BD)
0007b1 07be      	CPC  R27,R30
0007b2 f030      	BRLO _0x47
                 ; 0000 0167             UART_write_txt("D");
                +
0007b3 e0a5     +LDI R26 , LOW ( _0x45 + ( 5 ) )
0007b4 e0b3     +LDI R27 , HIGH ( _0x45 + ( 5 ) )
                 	__POINTW2MN _0x45,5
0007b5 df56      	RCALL _UART_write_txt
                 ; 0000 0168             UART_write_txt("\n\r");
                +
0007b6 e0a7     +LDI R26 , LOW ( _0x45 + ( 7 ) )
0007b7 e0b3     +LDI R27 , HIGH ( _0x45 + ( 7 ) )
                 	__POINTW2MN _0x45,7
                 _0xAF:
0007b8 df53      	RCALL _UART_write_txt
                 ; 0000 0169         }
                 ; 0000 016A 
                 ; 0000 016B         if (voltDigitalY<300){
                 _0x47:
0007b9 91a0 03cc 	LDS  R26,_voltDigitalY
0007bb 91b0 03cd 	LDS  R27,_voltDigitalY+1
0007bd 32ac      	CPI  R26,LOW(0x12C)
0007be e0e1      	LDI  R30,HIGH(0x12C)
0007bf 07be      	CPC  R27,R30
0007c0 f430      	BRSH _0x48
                 ; 0000 016C             UART_write_txt("a");
                +
0007c1 e0aa     +LDI R26 , LOW ( _0x45 + ( 10 ) )
0007c2 e0b3     +LDI R27 , HIGH ( _0x45 + ( 10 ) )
                 	__POINTW2MN _0x45,10
0007c3 df48      	RCALL _UART_write_txt
                 ; 0000 016D             UART_write_txt("\n\r");
                +
0007c4 e0ac     +LDI R26 , LOW ( _0x45 + ( 12 ) )
0007c5 e0b3     +LDI R27 , HIGH ( _0x45 + ( 12 ) )
                 	__POINTW2MN _0x45,12
0007c6 c00d      	RJMP _0xB0
                 ; 0000 016E         }
                 ; 0000 016F         else if(voltDigitalY>700){
                 _0x48:
0007c7 91a0 03cc 	LDS  R26,_voltDigitalY
0007c9 91b0 03cd 	LDS  R27,_voltDigitalY+1
0007cb 3bad      	CPI  R26,LOW(0x2BD)
0007cc e0e2      	LDI  R30,HIGH(0x2BD)
0007cd 07be      	CPC  R27,R30
0007ce f030      	BRLO _0x4A
                 ; 0000 0170             UART_write_txt("A");
                +
0007cf e0af     +LDI R26 , LOW ( _0x45 + ( 15 ) )
0007d0 e0b3     +LDI R27 , HIGH ( _0x45 + ( 15 ) )
                 	__POINTW2MN _0x45,15
0007d1 df3a      	RCALL _UART_write_txt
                 ; 0000 0171             UART_write_txt("\n\r");
                +
0007d2 e1a1     +LDI R26 , LOW ( _0x45 + ( 17 ) )
0007d3 e0b3     +LDI R27 , HIGH ( _0x45 + ( 17 ) )
                 	__POINTW2MN _0x45,17
                 _0xB0:
0007d4 df37      	RCALL _UART_write_txt
                 ; 0000 0172         }
                 ; 0000 0173 
                 ; 0000 0174         // -- Lectura Serial -- //
                 ; 0000 0175         if ((UCSR0A&0x80)!=0) //Instruccion que nos dice si hay un caracter listo
                 _0x4A:
0007d5 91e0 00c0 	LDS  R30,192
0007d7 78e0      	ANDI R30,LOW(0x80)
0007d8 f409      	BRNE PC+2
0007d9 c0d5      	RJMP _0x4B
                 ; 0000 0176                               // para leerse (bandera ?receive complete?)
                 ; 0000 0177         {
                 ; 0000 0178             dato=UART_read();       //Lee caracter del Puerto serie
0007da df20      	RCALL _UART_read
0007db 93e0 03de 	STS  _dato,R30
                 ; 0000 0179                                   // Codigo para procesar el caracter recibido
                 ; 0000 017A             if((dato >= '1') && (dato <= '4')){
0007dd 91a0 03de 	LDS  R26,_dato
0007df 33a1      	CPI  R26,LOW(0x31)
0007e0 f010      	BRLO _0x4D
0007e1 33a5      	CPI  R26,LOW(0x35)
0007e2 f008      	BRLO _0x4E
                 _0x4D:
0007e3 c083      	RJMP _0x4C
                 _0x4E:
                 ; 0000 017B                 switch(dato){
0007e4 91e0 03de 	LDS  R30,_dato
0007e6 e0f0      	LDI  R31,0
                 ; 0000 017C                     case '1':
0007e7 33e1      	CPI  R30,LOW(0x31)
0007e8 e0a0      	LDI  R26,HIGH(0x31)
0007e9 07fa      	CPC  R31,R26
0007ea f4d9      	BRNE _0x52
                 ; 0000 017D                         if (dis1 == 0){
0007eb 91e0 03ce 	LDS  R30,_dis1
0007ed 91f0 03cf 	LDS  R31,_dis1+1
0007ef 9730      	SBIW R30,0
0007f0 f459      	BRNE _0x53
                 ; 0000 017E                             UART_write_txt("LED1 encendido\n\r");
                +
0007f1 e1a4     +LDI R26 , LOW ( _0x45 + ( 20 ) )
0007f2 e0b3     +LDI R27 , HIGH ( _0x45 + ( 20 ) )
                 	__POINTW2MN _0x45,20
0007f3 df18      	RCALL _UART_write_txt
                 ; 0000 017F                             PORTB.0 = 1;
0007f4 9a28      	SBI  0x5,0
                 ; 0000 0180                             dis1 = 1;
0007f5 e0e1      	LDI  R30,LOW(1)
0007f6 e0f0      	LDI  R31,HIGH(1)
0007f7 93e0 03ce 	STS  _dis1,R30
0007f9 93f0 03cf 	STS  _dis1+1,R31
                 ; 0000 0181                         }
                 ; 0000 0182                         else{
0007fb c009      	RJMP _0x56
                 _0x53:
                 ; 0000 0183                             UART_write_txt("LED1 Apagado\n\r");
                +
0007fc e2a5     +LDI R26 , LOW ( _0x45 + ( 37 ) )
0007fd e0b3     +LDI R27 , HIGH ( _0x45 + ( 37 ) )
                 	__POINTW2MN _0x45,37
0007fe df0d      	RCALL _UART_write_txt
                 ; 0000 0184                             dis1 = 0;
0007ff e0e0      	LDI  R30,LOW(0)
000800 93e0 03ce 	STS  _dis1,R30
000802 93e0 03cf 	STS  _dis1+1,R30
                 ; 0000 0185                             PORTB.0 = 0;
000804 9828      	CBI  0x5,0
                 ; 0000 0186                         }
                 _0x56:
                 ; 0000 0187                         printf("\n\r");
000805 c05c      	RJMP _0xB1
                 ; 0000 0188                         break;
                 ; 0000 0189                     case '2':
                 _0x52:
000806 33e2      	CPI  R30,LOW(0x32)
000807 e0a0      	LDI  R26,HIGH(0x32)
000808 07fa      	CPC  R31,R26
000809 f4d9      	BRNE _0x59
                 ; 0000 018A                         if (dis2 == 0){
00080a 91e0 03d0 	LDS  R30,_dis2
00080c 91f0 03d1 	LDS  R31,_dis2+1
00080e 9730      	SBIW R30,0
00080f f459      	BRNE _0x5A
                 ; 0000 018B                             UART_write_txt("LED2 encendido\n\r");
                +
000810 e3a4     +LDI R26 , LOW ( _0x45 + ( 52 ) )
000811 e0b3     +LDI R27 , HIGH ( _0x45 + ( 52 ) )
                 	__POINTW2MN _0x45,52
000812 def9      	RCALL _UART_write_txt
                 ; 0000 018C                             PORTB.2 = 1;
000813 9a2a      	SBI  0x5,2
                 ; 0000 018D                             dis2 = 1;
000814 e0e1      	LDI  R30,LOW(1)
000815 e0f0      	LDI  R31,HIGH(1)
000816 93e0 03d0 	STS  _dis2,R30
000818 93f0 03d1 	STS  _dis2+1,R31
                 ; 0000 018E                         }
                 ; 0000 018F                         else{
00081a c009      	RJMP _0x5D
                 _0x5A:
                 ; 0000 0190                             UART_write_txt("LED2 apagado\n\r");
                +
00081b e4a5     +LDI R26 , LOW ( _0x45 + ( 69 ) )
00081c e0b3     +LDI R27 , HIGH ( _0x45 + ( 69 ) )
                 	__POINTW2MN _0x45,69
00081d deee      	RCALL _UART_write_txt
                 ; 0000 0191                             dis2 = 0;
00081e e0e0      	LDI  R30,LOW(0)
00081f 93e0 03d0 	STS  _dis2,R30
000821 93e0 03d1 	STS  _dis2+1,R30
                 ; 0000 0192                             PORTB.2 = 0;
000823 982a      	CBI  0x5,2
                 ; 0000 0193                         }
                 _0x5D:
                 ; 0000 0194                         printf("\n\r");
000824 c03d      	RJMP _0xB1
                 ; 0000 0195                         break;
                 ; 0000 0196                     case '3':
                 _0x59:
000825 33e3      	CPI  R30,LOW(0x33)
000826 e0a0      	LDI  R26,HIGH(0x33)
000827 07fa      	CPC  R31,R26
000828 f4d9      	BRNE _0x60
                 ; 0000 0197                         if (dis3 == 0){
000829 91e0 03d2 	LDS  R30,_dis3
00082b 91f0 03d3 	LDS  R31,_dis3+1
00082d 9730      	SBIW R30,0
00082e f459      	BRNE _0x61
                 ; 0000 0198                             UART_write_txt("LED3 encendido\n\r");
                +
00082f e5a4     +LDI R26 , LOW ( _0x45 + ( 84 ) )
000830 e0b3     +LDI R27 , HIGH ( _0x45 + ( 84 ) )
                 	__POINTW2MN _0x45,84
000831 deda      	RCALL _UART_write_txt
                 ; 0000 0199                             PORTD.6 = 1;
000832 9a5e      	SBI  0xB,6
                 ; 0000 019A                             dis3 = 1;
000833 e0e1      	LDI  R30,LOW(1)
000834 e0f0      	LDI  R31,HIGH(1)
000835 93e0 03d2 	STS  _dis3,R30
000837 93f0 03d3 	STS  _dis3+1,R31
                 ; 0000 019B                         }
                 ; 0000 019C                         else{
000839 c009      	RJMP _0x64
                 _0x61:
                 ; 0000 019D                             UART_write_txt("LED3 apagado\n\r");
                +
00083a e6a5     +LDI R26 , LOW ( _0x45 + ( 101 ) )
00083b e0b3     +LDI R27 , HIGH ( _0x45 + ( 101 ) )
                 	__POINTW2MN _0x45,101
00083c decf      	RCALL _UART_write_txt
                 ; 0000 019E                             dis3 = 0;
00083d e0e0      	LDI  R30,LOW(0)
00083e 93e0 03d2 	STS  _dis3,R30
000840 93e0 03d3 	STS  _dis3+1,R30
                 ; 0000 019F                             PORTD.6 = 0;
000842 985e      	CBI  0xB,6
                 ; 0000 01A0                         }
                 _0x64:
                 ; 0000 01A1                         printf("\n\r");
000843 c01e      	RJMP _0xB1
                 ; 0000 01A2                         break;
                 ; 0000 01A3                     case '4':
                 _0x60:
000844 33e4      	CPI  R30,LOW(0x34)
000845 e0a0      	LDI  R26,HIGH(0x34)
000846 07fa      	CPC  R31,R26
000847 f4f1      	BRNE _0x51
                 ; 0000 01A4                         if (dis4 == 0){
000848 91e0 03d4 	LDS  R30,_dis4
00084a 91f0 03d5 	LDS  R31,_dis4+1
00084c 9730      	SBIW R30,0
00084d f459      	BRNE _0x68
                 ; 0000 01A5                             UART_write_txt("LED4 encendido\n\r");
                +
00084e e7a4     +LDI R26 , LOW ( _0x45 + ( 116 ) )
00084f e0b3     +LDI R27 , HIGH ( _0x45 + ( 116 ) )
                 	__POINTW2MN _0x45,116
000850 debb      	RCALL _UART_write_txt
                 ; 0000 01A6                             PORTD.7 = 1;
000851 9a5f      	SBI  0xB,7
                 ; 0000 01A7                             dis4 = 1;
000852 e0e1      	LDI  R30,LOW(1)
000853 e0f0      	LDI  R31,HIGH(1)
000854 93e0 03d4 	STS  _dis4,R30
000856 93f0 03d5 	STS  _dis4+1,R31
                 ; 0000 01A8                         }
                 ; 0000 01A9                         else{
000858 c009      	RJMP _0x6B
                 _0x68:
                 ; 0000 01AA                             UART_write_txt("LED4 apagado\n\r");
                +
000859 e8a5     +LDI R26 , LOW ( _0x45 + ( 133 ) )
00085a e0b3     +LDI R27 , HIGH ( _0x45 + ( 133 ) )
                 	__POINTW2MN _0x45,133
00085b deb0      	RCALL _UART_write_txt
                 ; 0000 01AB                             dis4 = 0;
00085c e0e0      	LDI  R30,LOW(0)
00085d 93e0 03d4 	STS  _dis4,R30
00085f 93e0 03d5 	STS  _dis4+1,R30
                 ; 0000 01AC                             PORTD.7 = 0;
000861 985f      	CBI  0xB,7
                 ; 0000 01AD                         }
                 _0x6B:
                 ; 0000 01AE                         printf("\n\r");
                 _0xB1:
                +
000862 e6e4     +LDI R30 , LOW ( 2 * _0x0 + ( 2 ) )
000863 e0fc     +LDI R31 , HIGH ( 2 * _0x0 + ( 2 ) )
                 	__POINTW1FN _0x0,2
000864 940e 0efe 	CALL SUBOPT_0x3
                 ; 0000 01AF                         break;
                 ; 0000 01B0                 }
                 _0x51:
                 ; 0000 01B1             }
                 ; 0000 01B2             else if(dato == 'O'){
000866 c032      	RJMP _0x6E
                 _0x4C:
000867 91a0 03de 	LDS  R26,_dato
000869 34af      	CPI  R26,LOW(0x4F)
00086a f571      	BRNE _0x6F
                 ; 0000 01B3                 juego1 = 0;
00086b e0e0      	LDI  R30,LOW(0)
00086c 93e0 03d8 	STS  _juego1,R30
00086e 93e0 03d9 	STS  _juego1+1,R30
                 ; 0000 01B4                 vidas = 4;
000870 e0e4      	LDI  R30,LOW(4)
000871 e0f0      	LDI  R31,HIGH(4)
000872 93e0 03dc 	STS  _vidas,R30
000874 93f0 03dd 	STS  _vidas+1,R31
                 ; 0000 01B5                 PORTB.0 = 0;
000876 9828      	CBI  0x5,0
                 ; 0000 01B6                 PORTB.2 = 0;
000877 982a      	CBI  0x5,2
                 ; 0000 01B7                 PORTD.6 = 0;
000878 985e      	CBI  0xB,6
                 ; 0000 01B8                 PORTD.7 = 0;
000879 985f      	CBI  0xB,7
                 ; 0000 01B9                 printf("\n\r");
                +
00087a e6e4     +LDI R30 , LOW ( 2 * _0x0 + ( 2 ) )
00087b e0fc     +LDI R31 , HIGH ( 2 * _0x0 + ( 2 ) )
                 	__POINTW1FN _0x0,2
00087c 940e 0efe 	CALL SUBOPT_0x3
                 ; 0000 01BA                 for (i = 0; i < 3; i++)
00087e e0e0      	LDI  R30,LOW(0)
00087f 93e0 03d6 	STS  _i,R30
000881 93e0 03d7 	STS  _i+1,R30
                 _0x79:
000883 91a0 03d6 	LDS  R26,_i
000885 91b0 03d7 	LDS  R27,_i+1
000887 9713      	SBIW R26,3
000888 f484      	BRGE _0x7A
                 ; 0000 01BB                 {
                 ; 0000 01BC                     glcd_putimagef(0,0, imagen5, GLCD_PUTCOPY);
000889 940e 0eea 	CALL SUBOPT_0x0
00088b e3ec      	LDI  R30,LOW(_imagen5*2)
00088c e0fa      	LDI  R31,HIGH(_imagen5*2)
00088d 940e 0ef5 	CALL SUBOPT_0x2
                 ; 0000 01BD                     delay_ms(5000);
                 ; 0000 01BE                     glcd_clear();
00088f d183      	RCALL _glcd_clear
                 ; 0000 01BF                     delay_ms(5000);
000890 e8a8      	LDI  R26,LOW(5000)
000891 e1b3      	LDI  R27,HIGH(5000)
000892 940e 0f88 	CALL _delay_ms
                 ; 0000 01C0                 }
000894 eda6      	LDI  R26,LOW(_i)
000895 e0b3      	LDI  R27,HIGH(_i)
000896 940e 0f05 	CALL SUBOPT_0x4
000898 cfea      	RJMP _0x79
                 _0x7A:
                 ; 0000 01C1             }
                 ; 0000 01C2             if (dato == 'M'){
                 _0x6F:
                 _0x6E:
000899 91a0 03de 	LDS  R26,_dato
00089b 34ad      	CPI  R26,LOW(0x4D)
00089c f471      	BRNE _0x7B
                 ; 0000 01C3                 PORTD.5 = 1;
00089d 9a5d      	SBI  0xB,5
                 ; 0000 01C4                 delay_ms(5000);
00089e e8a8      	LDI  R26,LOW(5000)
00089f e1b3      	LDI  R27,HIGH(5000)
0008a0 940e 0f88 	CALL _delay_ms
                 ; 0000 01C5                 PORTD.5 = 0;
0008a2 985d      	CBI  0xB,5
                 ; 0000 01C6                 vidas--;
0008a3 edac      	LDI  R26,LOW(_vidas)
0008a4 e0b3      	LDI  R27,HIGH(_vidas)
0008a5 91ed      	LD   R30,X+
0008a6 91fd      	LD   R31,X+
0008a7 9731      	SBIW R30,1
0008a8 93fe      	ST   -X,R31
0008a9 93ee      	ST   -X,R30
                 ; 0000 01C7             }
                 ; 0000 01C8 
                 ; 0000 01C9             else{
0008aa c004      	RJMP _0x80
                 _0x7B:
                 ; 0000 01CA                 printf("\n\r");
                +
0008ab e6e4     +LDI R30 , LOW ( 2 * _0x0 + ( 2 ) )
0008ac e0fc     +LDI R31 , HIGH ( 2 * _0x0 + ( 2 ) )
                 	__POINTW1FN _0x0,2
0008ad 940e 0efe 	CALL SUBOPT_0x3
                 ; 0000 01CB             }
                 _0x80:
                 ; 0000 01CC         }
                 ; 0000 01CD         if(juego1 == 1){
                 _0x4B:
0008af 91a0 03d8 	LDS  R26,_juego1
0008b1 91b0 03d9 	LDS  R27,_juego1+1
0008b3 9711      	SBIW R26,1
0008b4 f009      	BREQ PC+2
0008b5 c049      	RJMP _0x81
                 ; 0000 01CE             if (play == 1 && vidas == 4){
0008b6 91a0 03da 	LDS  R26,_play
0008b8 91b0 03db 	LDS  R27,_play+1
0008ba 9711      	SBIW R26,1
0008bb f431      	BRNE _0x83
0008bc 91a0 03dc 	LDS  R26,_vidas
0008be 91b0 03dd 	LDS  R27,_vidas+1
0008c0 9714      	SBIW R26,4
0008c1 f009      	BREQ _0x84
                 _0x83:
0008c2 c01a      	RJMP _0x82
                 _0x84:
                 ; 0000 01CF                 glcd_putimagef(0,0, imagen4, GLCD_PUTCOPY);
0008c3 940e 0eea 	CALL SUBOPT_0x0
0008c5 e4e0      	LDI  R30,LOW(_imagen4*2)
0008c6 e0f8      	LDI  R31,HIGH(_imagen4*2)
0008c7 93fa      	ST   -Y,R31
0008c8 93ea      	ST   -Y,R30
0008c9 e0a0      	LDI  R26,LOW(0)
0008ca 940e 0ca8 	CALL _glcd_putimagef
                 ; 0000 01D0                 PORTB.0 = 1;
0008cc 9a28      	SBI  0x5,0
                 ; 0000 01D1                 delay_ms(3000);
0008cd 940e 0f0b 	CALL SUBOPT_0x5
                 ; 0000 01D2                 PORTB.2 = 1;
0008cf 9a2a      	SBI  0x5,2
                 ; 0000 01D3                 delay_ms(3000);
0008d0 940e 0f0b 	CALL SUBOPT_0x5
                 ; 0000 01D4                 PORTD.6 = 1;
0008d2 9a5e      	SBI  0xB,6
                 ; 0000 01D5                 delay_ms(3000);
0008d3 940e 0f0b 	CALL SUBOPT_0x5
                 ; 0000 01D6                 PORTD.7 = 1;
0008d5 9a5f      	SBI  0xB,7
                 ; 0000 01D7                 delay_ms(3000);
0008d6 940e 0f0b 	CALL SUBOPT_0x5
                 ; 0000 01D8                 play = 0;
0008d8 e0e0      	LDI  R30,LOW(0)
0008d9 93e0 03da 	STS  _play,R30
0008db 93e0 03db 	STS  _play+1,R30
                 ; 0000 01D9             }
                 ; 0000 01DA             glcd_putimagef(0,0, imagen2, GLCD_PUTCOPY);
                 _0x82:
0008dd 940e 0eea 	CALL SUBOPT_0x0
0008df e4e4      	LDI  R30,LOW(_imagen2*2)
0008e0 e0f6      	LDI  R31,HIGH(_imagen2*2)
0008e1 93fa      	ST   -Y,R31
0008e2 93ea      	ST   -Y,R30
0008e3 e0a0      	LDI  R26,LOW(0)
0008e4 940e 0ca8 	CALL _glcd_putimagef
                 ; 0000 01DB             // Sin animacion
                 ; 0000 01DC             //delay_ms(3000);
                 ; 0000 01DD             //glcd_putimagef(0,0, imagen3, GLCD_PUTCOPY);
                 ; 0000 01DE             //delay_ms(3000);
                 ; 0000 01DF             switch (vidas){
0008e6 91e0 03dc 	LDS  R30,_vidas
0008e8 91f0 03dd 	LDS  R31,_vidas+1
                 ; 0000 01E0             case 3:
0008ea 30e3      	CPI  R30,LOW(0x3)
0008eb e0a0      	LDI  R26,HIGH(0x3)
0008ec 07fa      	CPC  R31,R26
0008ed f411      	BRNE _0x90
                 ; 0000 01E1                 PORTD.7 = 0;
0008ee 985f      	CBI  0xB,7
                 ; 0000 01E2                 break;
0008ef c00f      	RJMP _0x8F
                 ; 0000 01E3             case 2:
                 _0x90:
0008f0 30e2      	CPI  R30,LOW(0x2)
0008f1 e0a0      	LDI  R26,HIGH(0x2)
0008f2 07fa      	CPC  R31,R26
0008f3 f411      	BRNE _0x93
                 ; 0000 01E4                 PORTD.6 = 0;
0008f4 985e      	CBI  0xB,6
                 ; 0000 01E5                 break;
0008f5 c009      	RJMP _0x8F
                 ; 0000 01E6             case 1:
                 _0x93:
0008f6 30e1      	CPI  R30,LOW(0x1)
0008f7 e0a0      	LDI  R26,HIGH(0x1)
0008f8 07fa      	CPC  R31,R26
0008f9 f411      	BRNE _0x96
                 ; 0000 01E7                 PORTB.2 = 0;
0008fa 982a      	CBI  0x5,2
                 ; 0000 01E8                 break;
0008fb c003      	RJMP _0x8F
                 ; 0000 01E9             case 0:
                 _0x96:
0008fc 9730      	SBIW R30,0
0008fd f409      	BRNE _0x9C
                 ; 0000 01EA                 PORTB.0 = 0;
0008fe 9828      	CBI  0x5,0
                 ; 0000 01EB                 break;
                 ; 0000 01EC             default:
                 _0x9C:
                 ; 0000 01ED                 break;
                 ; 0000 01EE             }
                 _0x8F:
                 ; 0000 01EF         }
                 ; 0000 01F0         // -- Transmision Serial -- //
                 ; 0000 01F1         if (PINC.5 == 0){
                 _0x81:
0008ff 9935      	SBIC 0x6,5
000900 c00d      	RJMP _0x9D
                 ; 0000 01F2             UART_write_txt("Str\n\r");
                +
000901 e9a4     +LDI R26 , LOW ( _0x45 + ( 148 ) )
000902 e0b3     +LDI R27 , HIGH ( _0x45 + ( 148 ) )
                 	__POINTW2MN _0x45,148
000903 de08      	RCALL _UART_write_txt
                 ; 0000 01F3             play = 1;
000904 e0e1      	LDI  R30,LOW(1)
000905 e0f0      	LDI  R31,HIGH(1)
000906 93e0 03da 	STS  _play,R30
000908 93f0 03db 	STS  _play+1,R31
                 ; 0000 01F4             juego1 = 1;
00090a 93e0 03d8 	STS  _juego1,R30
00090c 93f0 03d9 	STS  _juego1+1,R31
                 ; 0000 01F5         }while (PINC.5 == 0);
                 _0x9D:
                 _0x9E:
00090e 9b35      	SBIS 0x6,5
00090f cffe      	RJMP _0x9E
                 ; 0000 01F6         if (PINC.4 == 0){
000910 9934      	SBIC 0x6,4
000911 c003      	RJMP _0xA1
                 ; 0000 01F7             UART_write_txt("Esc\n\r");
                +
000912 e9aa     +LDI R26 , LOW ( _0x45 + ( 154 ) )
000913 e0b3     +LDI R27 , HIGH ( _0x45 + ( 154 ) )
                 	__POINTW2MN _0x45,154
000914 ddf7      	RCALL _UART_write_txt
                 ; 0000 01F8         }while (PINC.4 == 0);
                 _0xA1:
                 _0xA2:
000915 9b34      	SBIS 0x6,4
000916 cffe      	RJMP _0xA2
                 ; 0000 01F9         if (PINC.3 == 0){
000917 9933      	SBIC 0x6,3
000918 c003      	RJMP _0xA5
                 ; 0000 01FA             UART_write_txt("Jmp\n\r");
                +
000919 eaa0     +LDI R26 , LOW ( _0x45 + ( 160 ) )
00091a e0b3     +LDI R27 , HIGH ( _0x45 + ( 160 ) )
                 	__POINTW2MN _0x45,160
00091b ddf0      	RCALL _UART_write_txt
                 ; 0000 01FB         }while (PINC.3 == 0);
                 _0xA5:
                 _0xA6:
00091c 9b33      	SBIS 0x6,3
00091d cffe      	RJMP _0xA6
                 ; 0000 01FC         if (PINC.2 == 0){
00091e 9932      	SBIC 0x6,2
00091f c003      	RJMP _0xA9
                 ; 0000 01FD             UART_write_txt("Sho\n\r");
                +
000920 eaa6     +LDI R26 , LOW ( _0x45 + ( 166 ) )
000921 e0b3     +LDI R27 , HIGH ( _0x45 + ( 166 ) )
                 	__POINTW2MN _0x45,166
000922 dde9      	RCALL _UART_write_txt
                 ; 0000 01FE         }while (PINC.2 == 0);
                 _0xA9:
                 _0xAA:
000923 9b32      	SBIS 0x6,2
000924 cffe      	RJMP _0xAA
                 ; 0000 01FF     }
000925 ce61      	RJMP _0x40
                 ; 0000 0200 }
                 _0xAD:
000926 cfff      	RJMP _0xAD
                 ; .FEND
                 
                 	.DSEG
                 _0x45:
000300           	.BYTE 0xAC
                 	#ifndef __SLEEP_DEFINED__
                 	#endif
                 
                 	.CSEG
                 _pcd8544_delay_G100:
                 ; .FSTART _pcd8544_delay_G100
000927 9508      	RET
                 ; .FEND
                 _pcd8544_wrbus_G100:
                 ; .FSTART _pcd8544_wrbus_G100
000928 93aa      	ST   -Y,R26
000929 930a      	ST   -Y,R16
00092a 985a      	CBI  0xB,2
00092b e008      	LDI  R16,LOW(8)
                 _0x2000004:
00092c dffa      	RCALL _pcd8544_delay_G100
00092d 81e9      	LDD  R30,Y+1
00092e 78e0      	ANDI R30,LOW(0x80)
00092f f011      	BREQ _0x2000006
000930 9a2b      	SBI  0x5,3
000931 c001      	RJMP _0x2000007
                 _0x2000006:
000932 982b      	CBI  0x5,3
                 _0x2000007:
000933 81e9      	LDD  R30,Y+1
000934 0fee      	LSL  R30
000935 83e9      	STD  Y+1,R30
000936 dff0      	RCALL _pcd8544_delay_G100
000937 9a2d      	SBI  0x5,5
000938 dfee      	RCALL _pcd8544_delay_G100
000939 982d      	CBI  0x5,5
00093a 5001      	SUBI R16,LOW(1)
00093b f781      	BRNE _0x2000004
00093c 9a5a      	SBI  0xB,2
00093d 8108      	LDD  R16,Y+0
00093e 940c 0e82 	JMP  _0x2120002
                 ; .FEND
                 _pcd8544_wrcmd:
                 ; .FSTART _pcd8544_wrcmd
000940 93aa      	ST   -Y,R26
000941 985c      	CBI  0xB,4
000942 81a8      	LD   R26,Y
000943 dfe4      	RCALL _pcd8544_wrbus_G100
000944 940c 0ceb 	JMP  _0x2120004
                 ; .FEND
                 _pcd8544_wrdata_G100:
                 ; .FSTART _pcd8544_wrdata_G100
000946 93aa      	ST   -Y,R26
000947 9a5c      	SBI  0xB,4
000948 81a8      	LD   R26,Y
000949 dfde      	RCALL _pcd8544_wrbus_G100
00094a 940c 0ceb 	JMP  _0x2120004
                 ; .FEND
                 _pcd8544_setaddr_G100:
                 ; .FSTART _pcd8544_setaddr_G100
00094c 93aa      	ST   -Y,R26
00094d 930a      	ST   -Y,R16
00094e 81e9      	LDD  R30,Y+1
00094f 95e6      	LSR  R30
000950 95e6      	LSR  R30
000951 95e6      	LSR  R30
000952 2f0e      	MOV  R16,R30
000953 e5e4      	LDI  R30,LOW(84)
000954 9fe0      	MUL  R30,R16
000955 01f0      	MOVW R30,R0
000956 01df      	MOVW R26,R30
000957 81ea      	LDD  R30,Y+2
000958 e0f0      	LDI  R31,0
000959 0fea      	ADD  R30,R26
00095a 1ffb      	ADC  R31,R27
00095b 93e0 03df 	STS  _gfx_addr_G100,R30
00095d 93f0 03e0 	STS  _gfx_addr_G100+1,R31
00095f 2fe0      	MOV  R30,R16
000960 8108      	LDD  R16,Y+0
000961 940c 0ec9 	JMP  _0x2120001
                 ; .FEND
                 _pcd8544_gotoxy:
                 ; .FSTART _pcd8544_gotoxy
000963 93aa      	ST   -Y,R26
000964 81e9      	LDD  R30,Y+1
000965 68e0      	ORI  R30,0x80
000966 2fae      	MOV  R26,R30
000967 dfd8      	RCALL _pcd8544_wrcmd
000968 81e9      	LDD  R30,Y+1
000969 93ea      	ST   -Y,R30
00096a 81a9      	LDD  R26,Y+1
00096b dfe0      	RCALL _pcd8544_setaddr_G100
00096c 64e0      	ORI  R30,0x40
00096d 2fae      	MOV  R26,R30
00096e dfd1      	RCALL _pcd8544_wrcmd
00096f 940c 0e82 	JMP  _0x2120002
                 ; .FEND
                 _pcd8544_rdbyte:
                 ; .FSTART _pcd8544_rdbyte
000971 93aa      	ST   -Y,R26
000972 81e9      	LDD  R30,Y+1
000973 93ea      	ST   -Y,R30
000974 81a9      	LDD  R26,Y+1
000975 dfed      	RCALL _pcd8544_gotoxy
000976 91e0 03df 	LDS  R30,_gfx_addr_G100
000978 91f0 03e0 	LDS  R31,_gfx_addr_G100+1
00097a 51ef      	SUBI R30,LOW(-_gfx_buffer_G100)
00097b 4ffc      	SBCI R31,HIGH(-_gfx_buffer_G100)
00097c 81e0      	LD   R30,Z
00097d 940c 0e82 	JMP  _0x2120002
                 ; .FEND
                 _pcd8544_wrbyte:
                 ; .FSTART _pcd8544_wrbyte
00097f 93aa      	ST   -Y,R26
000980 940e 0f0f 	CALL SUBOPT_0x6
000982 9731      	SBIW R30,1
000983 51ef      	SUBI R30,LOW(-_gfx_buffer_G100)
000984 4ffc      	SBCI R31,HIGH(-_gfx_buffer_G100)
000985 81a8      	LD   R26,Y
000986 83a0      	STD  Z+0,R26
000987 dfbe      	RCALL _pcd8544_wrdata_G100
000988 940c 0ceb 	JMP  _0x2120004
                 ; .FEND
                 _glcd_init:
                 ; .FSTART _glcd_init
00098a 93ba      	ST   -Y,R27
00098b 93aa      	ST   -Y,R26
00098c 940e 0ffe 	CALL __SAVELOCR3
00098e 9a52      	SBI  0xA,2
00098f 9a5a      	SBI  0xB,2
000990 9a25      	SBI  0x4,5
000991 982d      	CBI  0x5,5
000992 9a23      	SBI  0x4,3
000993 9a54      	SBI  0xA,4
000994 9a53      	SBI  0xA,3
000995 985b      	CBI  0xB,3
000996 e0aa      	LDI  R26,LOW(10)
000997 e0b0      	LDI  R27,0
000998 940e 0f88 	CALL _delay_ms
00099a 9a5b      	SBI  0xB,3
00099b 81eb      	LDD  R30,Y+3
00099c 81fc      	LDD  R31,Y+3+1
00099d 9730      	SBIW R30,0
00099e f121      	BREQ _0x2000008
00099f 81e6      	LDD  R30,Z+6
0009a0 70e3      	ANDI R30,LOW(0x3)
0009a1 2f0e      	MOV  R16,R30
0009a2 81eb      	LDD  R30,Y+3
0009a3 81fc      	LDD  R31,Y+3+1
0009a4 81e6      	LDD  R30,Z+6
0009a5 95e6      	LSR  R30
0009a6 95e6      	LSR  R30
0009a7 70e7      	ANDI R30,LOW(0x7)
0009a8 2f1e      	MOV  R17,R30
0009a9 81eb      	LDD  R30,Y+3
0009aa 81fc      	LDD  R31,Y+3+1
0009ab 81e7      	LDD  R30,Z+7
0009ac 77ef      	ANDI R30,0x7F
0009ad 2f2e      	MOV  R18,R30
0009ae 81ab      	LDD  R26,Y+3
0009af 81bc      	LDD  R27,Y+3+1
0009b0 940e 0fd2 	CALL __GETW1P
                +
0009b2 93e0 03b0+STS _glcd_state + ( 4 ) , R30
0009b4 93f0 03b1+STS _glcd_state + ( 4 ) + 1 , R31
                 	__PUTW1MN _glcd_state,4
0009b6 9612      	ADIW R26,2
0009b7 940e 0fd2 	CALL __GETW1P
                +
0009b9 93e0 03c5+STS _glcd_state + ( 25 ) , R30
0009bb 93f0 03c6+STS _glcd_state + ( 25 ) + 1 , R31
                 	__PUTW1MN _glcd_state,25
0009bd 81ab      	LDD  R26,Y+3
0009be 81bc      	LDD  R27,Y+3+1
0009bf 9614      	ADIW R26,4
0009c0 940e 0fd2 	CALL __GETW1P
0009c2 c00d      	RJMP _0x20000A0
                 _0x2000008:
0009c3 e000      	LDI  R16,LOW(0)
0009c4 e013      	LDI  R17,LOW(3)
0009c5 e322      	LDI  R18,LOW(50)
0009c6 e0e0      	LDI  R30,LOW(0)
0009c7 e0f0      	LDI  R31,HIGH(0)
                +
0009c8 93e0 03b0+STS _glcd_state + ( 4 ) , R30
0009ca 93f0 03b1+STS _glcd_state + ( 4 ) + 1 , R31
                 	__PUTW1MN _glcd_state,4
                +
0009cc 93e0 03c5+STS _glcd_state + ( 25 ) , R30
0009ce 93f0 03c6+STS _glcd_state + ( 25 ) + 1 , R31
                 	__PUTW1MN _glcd_state,25
                 _0x20000A0:
                +
0009d0 93e0 03c7+STS _glcd_state + ( 27 ) , R30
0009d2 93f0 03c8+STS _glcd_state + ( 27 ) + 1 , R31
                 	__PUTW1MN _glcd_state,27
0009d4 e2a1      	LDI  R26,LOW(33)
0009d5 df6a      	RCALL _pcd8544_wrcmd
0009d6 2fe0      	MOV  R30,R16
0009d7 60e4      	ORI  R30,4
0009d8 2fae      	MOV  R26,R30
0009d9 df66      	RCALL _pcd8544_wrcmd
0009da 2fe1      	MOV  R30,R17
0009db 61e0      	ORI  R30,0x10
0009dc 2fae      	MOV  R26,R30
0009dd df62      	RCALL _pcd8544_wrcmd
0009de 2fe2      	MOV  R30,R18
0009df 68e0      	ORI  R30,0x80
0009e0 2fae      	MOV  R26,R30
0009e1 df5e      	RCALL _pcd8544_wrcmd
0009e2 e2a0      	LDI  R26,LOW(32)
0009e3 df5c      	RCALL _pcd8544_wrcmd
0009e4 e0a1      	LDI  R26,LOW(1)
0009e5 d023      	RCALL _glcd_display
0009e6 e0e1      	LDI  R30,LOW(1)
0009e7 93e0 03ac 	STS  _glcd_state,R30
0009e9 e0e0      	LDI  R30,LOW(0)
                +
0009ea 93e0 03ad+STS _glcd_state + ( 1 ) , R30
                 	__PUTB1MN _glcd_state,1
0009ec e0e1      	LDI  R30,LOW(1)
                +
0009ed 93e0 03b2+STS _glcd_state + ( 6 ) , R30
                 	__PUTB1MN _glcd_state,6
                +
0009ef 93e0 03b3+STS _glcd_state + ( 7 ) , R30
                 	__PUTB1MN _glcd_state,7
                +
0009f1 93e0 03b4+STS _glcd_state + ( 8 ) , R30
                 	__PUTB1MN _glcd_state,8
0009f3 efef      	LDI  R30,LOW(255)
                +
0009f4 93e0 03b5+STS _glcd_state + ( 9 ) , R30
                 	__PUTB1MN _glcd_state,9
0009f6 e0e1      	LDI  R30,LOW(1)
                +
0009f7 93e0 03bc+STS _glcd_state + ( 16 ) , R30
                 	__PUTB1MN _glcd_state,16
                +
0009f9 ebed     +LDI R30 , LOW ( _glcd_state + ( 17 ) )
0009fa e0f3     +LDI R31 , HIGH ( _glcd_state + ( 17 ) )
                 	__POINTW1MN _glcd_state,17
0009fb 93fa      	ST   -Y,R31
0009fc 93ea      	ST   -Y,R30
0009fd efef      	LDI  R30,LOW(255)
0009fe 93ea      	ST   -Y,R30
0009ff e0a8      	LDI  R26,LOW(8)
000a00 e0b0      	LDI  R27,0
000a01 940e 0e50 	CALL _memset
000a03 d00f      	RCALL _glcd_clear
000a04 e0e1      	LDI  R30,LOW(1)
000a05 940e 1005 	CALL __LOADLOCR3
000a07 940c 0e5e 	JMP  _0x2120003
                 ; .FEND
                 _glcd_display:
                 ; .FSTART _glcd_display
000a09 93aa      	ST   -Y,R26
000a0a 81e8      	LD   R30,Y
000a0b 30e0      	CPI  R30,0
000a0c f011      	BREQ _0x200000A
000a0d e0ec      	LDI  R30,LOW(12)
000a0e c001      	RJMP _0x200000B
                 _0x200000A:
000a0f e0e8      	LDI  R30,LOW(8)
                 _0x200000B:
000a10 2fae      	MOV  R26,R30
000a11 df2e      	RCALL _pcd8544_wrcmd
000a12 c2d8      	RJMP _0x2120004
                 ; .FEND
                 _glcd_clear:
                 ; .FSTART _glcd_clear
000a13 940e 0ffe 	CALL __SAVELOCR3
000a15 e020      	LDI  R18,0
                +
000a16 91e0 03ad+LDS R30 , _glcd_state + ( 1 )
                 	__GETB1MN _glcd_state,1
000a18 30e0      	CPI  R30,0
000a19 f009      	BREQ _0x200000D
000a1a ef2f      	LDI  R18,LOW(255)
                 _0x200000D:
000a1b e0e0      	LDI  R30,LOW(0)
000a1c 93ea      	ST   -Y,R30
000a1d e0a0      	LDI  R26,LOW(0)
000a1e df44      	RCALL _pcd8544_gotoxy
                +
000a1f ef08     +LDI R16 , LOW ( 504 )
000a20 e011     +LDI R17 , HIGH ( 504 )
                 	__GETWRN 16,17,504
                 _0x200000E:
000a21 01f8      	MOVW R30,R16
                +
000a22 5001     +SUBI R16 , LOW ( 1 )
000a23 4010     +SBCI R17 , HIGH ( 1 )
                 	__SUBWRN 16,17,1
000a24 9730      	SBIW R30,0
000a25 f019      	BREQ _0x2000010
000a26 2fa2      	MOV  R26,R18
000a27 df57      	RCALL _pcd8544_wrbyte
000a28 cff8      	RJMP _0x200000E
                 _0x2000010:
000a29 e0e0      	LDI  R30,LOW(0)
000a2a 93ea      	ST   -Y,R30
000a2b e0a0      	LDI  R26,LOW(0)
000a2c d2a9      	RCALL _glcd_moveto
000a2d 940e 1005 	CALL __LOADLOCR3
000a2f 940c 0ec9 	JMP  _0x2120001
                 ; .FEND
                 _pcd8544_wrmasked_G100:
                 ; .FSTART _pcd8544_wrmasked_G100
000a31 93aa      	ST   -Y,R26
000a32 930a      	ST   -Y,R16
000a33 81ed      	LDD  R30,Y+5
000a34 93ea      	ST   -Y,R30
000a35 81ad      	LDD  R26,Y+5
000a36 df3a      	RCALL _pcd8544_rdbyte
000a37 2f0e      	MOV  R16,R30
000a38 81e9      	LDD  R30,Y+1
000a39 30e7      	CPI  R30,LOW(0x7)
000a3a f011      	BREQ _0x2000020
000a3b 30e8      	CPI  R30,LOW(0x8)
000a3c f439      	BRNE _0x2000021
                 _0x2000020:
000a3d 81eb      	LDD  R30,Y+3
000a3e 93ea      	ST   -Y,R30
000a3f 81aa      	LDD  R26,Y+2
000a40 940e 0e84 	CALL _glcd_mappixcolor1bit
000a42 83eb      	STD  Y+3,R30
000a43 c008      	RJMP _0x2000022
                 _0x2000021:
000a44 30e3      	CPI  R30,LOW(0x3)
000a45 f421      	BRNE _0x2000024
000a46 81eb      	LDD  R30,Y+3
000a47 95e0      	COM  R30
000a48 83eb      	STD  Y+3,R30
000a49 c002      	RJMP _0x2000025
                 _0x2000024:
000a4a 30e0      	CPI  R30,0
000a4b f421      	BRNE _0x2000026
                 _0x2000025:
                 _0x2000022:
000a4c 81ea      	LDD  R30,Y+2
000a4d 95e0      	COM  R30
000a4e 230e      	AND  R16,R30
000a4f c002      	RJMP _0x2000027
                 _0x2000026:
000a50 30e2      	CPI  R30,LOW(0x2)
000a51 f429      	BRNE _0x2000028
                 _0x2000027:
000a52 81ea      	LDD  R30,Y+2
000a53 81ab      	LDD  R26,Y+3
000a54 23ea      	AND  R30,R26
000a55 2b0e      	OR   R16,R30
000a56 c00e      	RJMP _0x200001E
                 _0x2000028:
000a57 30e1      	CPI  R30,LOW(0x1)
000a58 f429      	BRNE _0x2000029
000a59 81ea      	LDD  R30,Y+2
000a5a 81ab      	LDD  R26,Y+3
000a5b 23ea      	AND  R30,R26
000a5c 270e      	EOR  R16,R30
000a5d c007      	RJMP _0x200001E
                 _0x2000029:
000a5e 30e4      	CPI  R30,LOW(0x4)
000a5f f429      	BRNE _0x200001E
000a60 81ea      	LDD  R30,Y+2
000a61 95e0      	COM  R30
000a62 81ab      	LDD  R26,Y+3
000a63 2bea      	OR   R30,R26
000a64 230e      	AND  R16,R30
                 _0x200001E:
000a65 2fa0      	MOV  R26,R16
000a66 df18      	RCALL _pcd8544_wrbyte
000a67 8108      	LDD  R16,Y+0
000a68 9626      	ADIW R28,6
000a69 9508      	RET
                 ; .FEND
                 _glcd_block:
                 ; .FSTART _glcd_block
000a6a 93aa      	ST   -Y,R26
000a6b 9723      	SBIW R28,3
000a6c 940e 0ffb 	CALL __SAVELOCR6
000a6e 89a8      	LDD  R26,Y+16
000a6f 35a4      	CPI  R26,LOW(0x54)
000a70 f448      	BRSH _0x200002C
000a71 85af      	LDD  R26,Y+15
000a72 33a0      	CPI  R26,LOW(0x30)
000a73 f430      	BRSH _0x200002C
000a74 85ae      	LDD  R26,Y+14
000a75 30a0      	CPI  R26,LOW(0x0)
000a76 f019      	BREQ _0x200002C
000a77 85ad      	LDD  R26,Y+13
000a78 30a0      	CPI  R26,LOW(0x0)
000a79 f409      	BRNE _0x200002B
                 _0x200002C:
000a7a c1d5      	RJMP _0x2120007
                 _0x200002B:
000a7b 85ee      	LDD  R30,Y+14
000a7c 87e8      	STD  Y+8,R30
000a7d 89a8      	LDD  R26,Y+16
000a7e 27bb      	CLR  R27
000a7f 85ee      	LDD  R30,Y+14
000a80 e0f0      	LDI  R31,0
000a81 0fae      	ADD  R26,R30
000a82 1fbf      	ADC  R27,R31
000a83 35a5      	CPI  R26,LOW(0x55)
000a84 e0e0      	LDI  R30,HIGH(0x55)
000a85 07be      	CPC  R27,R30
000a86 f020      	BRLO _0x200002E
000a87 89a8      	LDD  R26,Y+16
000a88 e5e4      	LDI  R30,LOW(84)
000a89 1bea      	SUB  R30,R26
000a8a 87ee      	STD  Y+14,R30
                 _0x200002E:
000a8b 853d      	LDD  R19,Y+13
000a8c 85af      	LDD  R26,Y+15
000a8d 27bb      	CLR  R27
000a8e 85ed      	LDD  R30,Y+13
000a8f e0f0      	LDI  R31,0
000a90 0fae      	ADD  R26,R30
000a91 1fbf      	ADC  R27,R31
000a92 97d1      	SBIW R26,49
000a93 f020      	BRLO _0x200002F
000a94 85af      	LDD  R26,Y+15
000a95 e3e0      	LDI  R30,LOW(48)
000a96 1bea      	SUB  R30,R26
000a97 87ed      	STD  Y+13,R30
                 _0x200002F:
000a98 85a9      	LDD  R26,Y+9
000a99 30a6      	CPI  R26,LOW(0x6)
000a9a f009      	BREQ PC+2
000a9b c05b      	RJMP _0x2000030
000a9c 85ec      	LDD  R30,Y+12
000a9d 30e1      	CPI  R30,LOW(0x1)
000a9e f409      	BRNE _0x2000034
000a9f c1b0      	RJMP _0x2120007
                 _0x2000034:
000aa0 30e3      	CPI  R30,LOW(0x3)
000aa1 f439      	BRNE _0x2000037
                +
000aa2 91e0 03c7+LDS R30 , _glcd_state + ( 27 )
000aa4 91f0 03c8+LDS R31 , _glcd_state + ( 27 ) + 1
                 	__GETW1MN _glcd_state,27
000aa6 9730      	SBIW R30,0
000aa7 f409      	BRNE _0x2000036
000aa8 c1a7      	RJMP _0x2120007
                 _0x2000036:
                 _0x2000037:
000aa9 8518      	LDD  R17,Y+8
000aaa 85ed      	LDD  R30,Y+13
000aab 95e6      	LSR  R30
000aac 95e6      	LSR  R30
000aad 95e6      	LSR  R30
000aae 2f2e      	MOV  R18,R30
000aaf 2fe3      	MOV  R30,R19
000ab0 70e7      	ANDI R30,LOW(0x7)
000ab1 f419      	BRNE _0x2000039
000ab2 85ad      	LDD  R26,Y+13
000ab3 173a      	CP   R19,R26
000ab4 f0e9      	BREQ _0x2000038
                 _0x2000039:
000ab5 2fa1      	MOV  R26,R17
000ab6 27bb      	CLR  R27
000ab7 2fe2      	MOV  R30,R18
000ab8 e0f0      	LDI  R31,0
000ab9 940e 0faa 	CALL __MULW12U
000abb 85aa      	LDD  R26,Y+10
000abc 85bb      	LDD  R27,Y+10+1
000abd 940e 0f12 	CALL SUBOPT_0x7
000abf 9536      	LSR  R19
000ac0 9536      	LSR  R19
000ac1 9536      	LSR  R19
000ac2 2f42      	MOV  R20,R18
                 _0x200003B:
000ac3 934f      	PUSH R20
000ac4 5f4f      	SUBI R20,-1
000ac5 2fe3      	MOV  R30,R19
000ac6 91af      	POP  R26
000ac7 17ea      	CP   R30,R26
000ac8 f048      	BRLO _0x200003D
000ac9 2f01      	MOV  R16,R17
                 _0x200003E:
000aca 2fe0      	MOV  R30,R16
000acb 5001      	SUBI R16,1
000acc 30e0      	CPI  R30,0
000acd f019      	BREQ _0x2000040
000ace 940e 0f17 	CALL SUBOPT_0x8
000ad0 cff9      	RJMP _0x200003E
                 _0x2000040:
000ad1 cff1      	RJMP _0x200003B
                 _0x200003D:
                 _0x2000038:
000ad2 85ae      	LDD  R26,Y+14
000ad3 171a      	CP   R17,R26
000ad4 f111      	BREQ _0x2000041
000ad5 85ee      	LDD  R30,Y+14
000ad6 85aa      	LDD  R26,Y+10
000ad7 85bb      	LDD  R27,Y+10+1
000ad8 e0f0      	LDI  R31,0
000ad9 940e 0f12 	CALL SUBOPT_0x7
000adb 85ed      	LDD  R30,Y+13
000adc 70e7      	ANDI R30,LOW(0x7)
000add f009      	BREQ _0x2000042
000ade 5f2f      	SUBI R18,-LOW(1)
                 _0x2000042:
000adf e030      	LDI  R19,LOW(0)
                 _0x2000043:
000ae0 933f      	PUSH R19
000ae1 5f3f      	SUBI R19,-1
000ae2 2fe2      	MOV  R30,R18
000ae3 91af      	POP  R26
000ae4 17ae      	CP   R26,R30
000ae5 f488      	BRSH _0x2000045
000ae6 850e      	LDD  R16,Y+14
                 _0x2000046:
000ae7 930f      	PUSH R16
000ae8 5f0f      	SUBI R16,-1
000ae9 2fe1      	MOV  R30,R17
000aea 91af      	POP  R26
000aeb 17ae      	CP   R26,R30
000aec f418      	BRSH _0x2000048
000aed 940e 0f17 	CALL SUBOPT_0x8
000aef cff7      	RJMP _0x2000046
                 _0x2000048:
000af0 85ee      	LDD  R30,Y+14
000af1 81ae      	LDD  R26,Y+6
000af2 81bf      	LDD  R27,Y+6+1
000af3 e0f0      	LDI  R31,0
000af4 940e 0f12 	CALL SUBOPT_0x7
000af6 cfe9      	RJMP _0x2000043
                 _0x2000045:
                 _0x2000041:
                 _0x2000030:
000af7 85ef      	LDD  R30,Y+15
000af8 70e7      	ANDI R30,LOW(0x7)
000af9 2f2e      	MOV  R18,R30
                 _0x2000049:
000afa 85ed      	LDD  R30,Y+13
000afb 30e0      	CPI  R30,0
000afc f409      	BRNE PC+2
000afd c152      	RJMP _0x200004B
000afe 85ea      	LDD  R30,Y+10
000aff 85fb      	LDD  R31,Y+10+1
000b00 83ee      	STD  Y+6,R30
000b01 83ff      	STD  Y+6+1,R31
000b02 e000      	LDI  R16,LOW(0)
000b03 8918      	LDD  R17,Y+16
000b04 3020      	CPI  R18,0
000b05 f009      	BREQ PC+2
000b06 c066      	RJMP _0x200004C
000b07 85ad      	LDD  R26,Y+13
000b08 30a8      	CPI  R26,LOW(0x8)
000b09 f408      	BRSH PC+2
000b0a c05d      	RJMP _0x200004D
000b0b 85e9      	LDD  R30,Y+9
000b0c 30e0      	CPI  R30,0
000b0d f011      	BREQ _0x2000052
000b0e 30e3      	CPI  R30,LOW(0x3)
000b0f f409      	BRNE _0x2000053
                 _0x2000052:
000b10 c002      	RJMP _0x2000054
                 _0x2000053:
000b11 30e7      	CPI  R30,LOW(0x7)
000b12 f409      	BRNE _0x2000055
                 _0x2000054:
000b13 c002      	RJMP _0x2000056
                 _0x2000055:
000b14 30e8      	CPI  R30,LOW(0x8)
000b15 f409      	BRNE _0x2000057
                 _0x2000056:
000b16 c002      	RJMP _0x2000058
                 _0x2000057:
000b17 30e9      	CPI  R30,LOW(0x9)
000b18 f409      	BRNE _0x2000059
                 _0x2000058:
000b19 c002      	RJMP _0x200005A
                 _0x2000059:
000b1a 30ea      	CPI  R30,LOW(0xA)
000b1b f421      	BRNE _0x200005B
                 _0x200005A:
000b1c 931a      	ST   -Y,R17
000b1d 89a8      	LDD  R26,Y+16
000b1e de44      	RCALL _pcd8544_gotoxy
000b1f c004      	RJMP _0x2000050
                 _0x200005B:
000b20 30e6      	CPI  R30,LOW(0x6)
000b21 f411      	BRNE _0x2000050
000b22 940e 0f24 	CALL SUBOPT_0x9
                 _0x2000050:
                 _0x200005D:
000b24 930f      	PUSH R16
000b25 5f0f      	SUBI R16,-1
000b26 85ee      	LDD  R30,Y+14
000b27 91af      	POP  R26
000b28 17ae      	CP   R26,R30
000b29 f5b8      	BRSH _0x200005F
000b2a 85a9      	LDD  R26,Y+9
000b2b 30a6      	CPI  R26,LOW(0x6)
000b2c f469      	BRNE _0x2000060
000b2d 940e 0f28 	CALL SUBOPT_0xA
000b2f 93fa      	ST   -Y,R31
000b30 93ea      	ST   -Y,R30
000b31 940e 0f0f 	CALL SUBOPT_0x6
000b33 9731      	SBIW R30,1
000b34 51ef      	SUBI R30,LOW(-_gfx_buffer_G100)
000b35 4ffc      	SBCI R31,HIGH(-_gfx_buffer_G100)
000b36 81a0      	LD   R26,Z
000b37 940e 0ecb 	CALL _glcd_writemem
000b39 c026      	RJMP _0x2000061
                 _0x2000060:
000b3a 85e9      	LDD  R30,Y+9
000b3b 30e9      	CPI  R30,LOW(0x9)
000b3c f411      	BRNE _0x2000065
000b3d e040      	LDI  R20,LOW(0)
000b3e c00e      	RJMP _0x2000066
                 _0x2000065:
000b3f 30ea      	CPI  R30,LOW(0xA)
000b40 f411      	BRNE _0x2000064
000b41 ef4f      	LDI  R20,LOW(255)
000b42 c00a      	RJMP _0x2000066
                 _0x2000064:
000b43 940e 0f28 	CALL SUBOPT_0xA
000b45 940e 0f31 	CALL SUBOPT_0xB
000b47 2f4e      	MOV  R20,R30
000b48 85e9      	LDD  R30,Y+9
000b49 30e7      	CPI  R30,LOW(0x7)
000b4a f011      	BREQ _0x200006D
000b4b 30e8      	CPI  R30,LOW(0x8)
000b4c f421      	BRNE _0x200006E
                 _0x200006D:
                 _0x2000066:
000b4d 940e 0f37 	CALL SUBOPT_0xC
000b4f 2f4e      	MOV  R20,R30
000b50 c006      	RJMP _0x200006F
                 _0x200006E:
000b51 30e3      	CPI  R30,LOW(0x3)
000b52 f411      	BRNE _0x2000071
000b53 9540      	COM  R20
000b54 c002      	RJMP _0x2000072
                 _0x2000071:
000b55 30e0      	CPI  R30,0
000b56 f419      	BRNE _0x2000074
                 _0x2000072:
                 _0x200006F:
000b57 2fa4      	MOV  R26,R20
000b58 dded      	RCALL _pcd8544_wrdata_G100
000b59 c006      	RJMP _0x200006B
                 _0x2000074:
000b5a 940e 0f3b 	CALL SUBOPT_0xD
000b5c efef      	LDI  R30,LOW(255)
000b5d 93ea      	ST   -Y,R30
000b5e 85ad      	LDD  R26,Y+13
000b5f ded1      	RCALL _pcd8544_wrmasked_G100
                 _0x200006B:
                 _0x2000061:
000b60 cfc3      	RJMP _0x200005D
                 _0x200005F:
000b61 85ef      	LDD  R30,Y+15
000b62 5fe8      	SUBI R30,-LOW(8)
000b63 87ef      	STD  Y+15,R30
000b64 85ed      	LDD  R30,Y+13
000b65 50e8      	SUBI R30,LOW(8)
000b66 87ed      	STD  Y+13,R30
000b67 c0df      	RJMP _0x2000075
                 _0x200004D:
000b68 854d      	LDD  R20,Y+13
000b69 e030      	LDI  R19,LOW(0)
000b6a e0e0      	LDI  R30,LOW(0)
000b6b 87ed      	STD  Y+13,R30
000b6c c081      	RJMP _0x2000076
                 _0x200004C:
000b6d 2fe2      	MOV  R30,R18
000b6e 85ad      	LDD  R26,Y+13
000b6f 0fae      	ADD  R26,R30
000b70 30a9      	CPI  R26,LOW(0x9)
000b71 f420      	BRSH _0x2000077
000b72 853d      	LDD  R19,Y+13
000b73 e0e0      	LDI  R30,LOW(0)
000b74 87ed      	STD  Y+13,R30
000b75 c003      	RJMP _0x2000078
                 _0x2000077:
000b76 e0e8      	LDI  R30,LOW(8)
000b77 1be2      	SUB  R30,R18
000b78 2f3e      	MOV  R19,R30
                 _0x2000078:
000b79 932a      	ST   -Y,R18
000b7a 2fa3      	MOV  R26,R19
000b7b 940e 0e79 	CALL _glcd_getmask
000b7d 2f5e      	MOV  R21,R30
000b7e 85e9      	LDD  R30,Y+9
000b7f 30e6      	CPI  R30,LOW(0x6)
000b80 f529      	BRNE _0x200007C
000b81 940e 0f24 	CALL SUBOPT_0x9
                 _0x200007D:
000b83 930f      	PUSH R16
000b84 5f0f      	SUBI R16,-1
000b85 85ee      	LDD  R30,Y+14
000b86 91af      	POP  R26
000b87 17ae      	CP   R26,R30
000b88 f4e0      	BRSH _0x200007F
000b89 940e 0f0f 	CALL SUBOPT_0x6
000b8b 9731      	SBIW R30,1
000b8c 51ef      	SUBI R30,LOW(-_gfx_buffer_G100)
000b8d 4ffc      	SBCI R31,HIGH(-_gfx_buffer_G100)
000b8e 81e0      	LD   R30,Z
000b8f 23e5      	AND  R30,R21
000b90 2fae      	MOV  R26,R30
000b91 2fe2      	MOV  R30,R18
000b92 940e 0fa2 	CALL __LSRB12
000b94 940e 0f41 	CALL SUBOPT_0xE
000b96 2fe2      	MOV  R30,R18
000b97 2fa5      	MOV  R26,R21
000b98 940e 0fa2 	CALL __LSRB12
000b9a 95e0      	COM  R30
000b9b 21e1      	AND  R30,R1
000b9c 2b4e      	OR   R20,R30
000b9d 940e 0f28 	CALL SUBOPT_0xA
000b9f 93fa      	ST   -Y,R31
000ba0 93ea      	ST   -Y,R30
000ba1 2fa4      	MOV  R26,R20
000ba2 940e 0ecb 	CALL _glcd_writemem
000ba4 cfde      	RJMP _0x200007D
                 _0x200007F:
000ba5 c02c      	RJMP _0x200007B
                 _0x200007C:
000ba6 30e9      	CPI  R30,LOW(0x9)
000ba7 f411      	BRNE _0x2000080
000ba8 e040      	LDI  R20,LOW(0)
000ba9 c003      	RJMP _0x2000081
                 _0x2000080:
000baa 30ea      	CPI  R30,LOW(0xA)
000bab f4a9      	BRNE _0x2000087
000bac ef4f      	LDI  R20,LOW(255)
                 _0x2000081:
000bad 940e 0f37 	CALL SUBOPT_0xC
000baf 2fae      	MOV  R26,R30
000bb0 2fe2      	MOV  R30,R18
000bb1 940e 0f9a 	CALL __LSLB12
000bb3 2f4e      	MOV  R20,R30
                 _0x2000084:
000bb4 930f      	PUSH R16
000bb5 5f0f      	SUBI R16,-1
000bb6 85ee      	LDD  R30,Y+14
000bb7 91af      	POP  R26
000bb8 17ae      	CP   R26,R30
000bb9 f430      	BRSH _0x2000086
000bba 940e 0f3b 	CALL SUBOPT_0xD
000bbc 935a      	ST   -Y,R21
000bbd e0a0      	LDI  R26,LOW(0)
000bbe de72      	RCALL _pcd8544_wrmasked_G100
000bbf cff4      	RJMP _0x2000084
                 _0x2000086:
000bc0 c011      	RJMP _0x200007B
                 _0x2000087:
                 _0x2000088:
000bc1 930f      	PUSH R16
000bc2 5f0f      	SUBI R16,-1
000bc3 85ee      	LDD  R30,Y+14
000bc4 91af      	POP  R26
000bc5 17ae      	CP   R26,R30
000bc6 f458      	BRSH _0x200008A
000bc7 940e 0f4c 	CALL SUBOPT_0xF
000bc9 2fae      	MOV  R26,R30
000bca 2fe2      	MOV  R30,R18
000bcb 940e 0f9a 	CALL __LSLB12
000bcd 93ea      	ST   -Y,R30
000bce 935a      	ST   -Y,R21
000bcf 85ad      	LDD  R26,Y+13
000bd0 de60      	RCALL _pcd8544_wrmasked_G100
000bd1 cfef      	RJMP _0x2000088
                 _0x200008A:
                 _0x200007B:
000bd2 85ed      	LDD  R30,Y+13
000bd3 30e0      	CPI  R30,0
000bd4 f409      	BRNE _0x200008B
000bd5 c07a      	RJMP _0x200004B
                 _0x200008B:
000bd6 85ad      	LDD  R26,Y+13
000bd7 30a8      	CPI  R26,LOW(0x8)
000bd8 f428      	BRSH _0x200008C
000bd9 85ed      	LDD  R30,Y+13
000bda 1be3      	SUB  R30,R19
000bdb 2f4e      	MOV  R20,R30
000bdc e0e0      	LDI  R30,LOW(0)
000bdd c003      	RJMP _0x20000A1
                 _0x200008C:
000bde 2f42      	MOV  R20,R18
000bdf 85ed      	LDD  R30,Y+13
000be0 50e8      	SUBI R30,LOW(8)
                 _0x20000A1:
000be1 87ed      	STD  Y+13,R30
000be2 e000      	LDI  R16,LOW(0)
000be3 85ef      	LDD  R30,Y+15
000be4 5fe8      	SUBI R30,-LOW(8)
000be5 87ef      	STD  Y+15,R30
000be6 e0e8      	LDI  R30,LOW(8)
000be7 1be2      	SUB  R30,R18
000be8 2f3e      	MOV  R19,R30
000be9 8918      	LDD  R17,Y+16
000bea 85ea      	LDD  R30,Y+10
000beb 85fb      	LDD  R31,Y+10+1
000bec 83ee      	STD  Y+6,R30
000bed 83ff      	STD  Y+6+1,R31
                 _0x2000076:
000bee 2fe4      	MOV  R30,R20
000bef e0f0      	LDI  R31,0
000bf0 5ce8      	SUBI R30,LOW(-__glcd_mask*2)
000bf1 4ff3      	SBCI R31,HIGH(-__glcd_mask*2)
000bf2 9154      	LPM  R21,Z
000bf3 85e9      	LDD  R30,Y+9
000bf4 30e6      	CPI  R30,LOW(0x6)
000bf5 f529      	BRNE _0x2000091
000bf6 940e 0f24 	CALL SUBOPT_0x9
                 _0x2000092:
000bf8 930f      	PUSH R16
000bf9 5f0f      	SUBI R16,-1
000bfa 85ee      	LDD  R30,Y+14
000bfb 91af      	POP  R26
000bfc 17ae      	CP   R26,R30
000bfd f4e0      	BRSH _0x2000094
000bfe 940e 0f0f 	CALL SUBOPT_0x6
000c00 9731      	SBIW R30,1
000c01 51ef      	SUBI R30,LOW(-_gfx_buffer_G100)
000c02 4ffc      	SBCI R31,HIGH(-_gfx_buffer_G100)
000c03 81e0      	LD   R30,Z
000c04 23e5      	AND  R30,R21
000c05 2fae      	MOV  R26,R30
000c06 2fe3      	MOV  R30,R19
000c07 940e 0f9a 	CALL __LSLB12
000c09 940e 0f41 	CALL SUBOPT_0xE
000c0b 2fe3      	MOV  R30,R19
000c0c 2fa5      	MOV  R26,R21
000c0d 940e 0f9a 	CALL __LSLB12
000c0f 95e0      	COM  R30
000c10 21e1      	AND  R30,R1
000c11 2b4e      	OR   R20,R30
000c12 940e 0f28 	CALL SUBOPT_0xA
000c14 93fa      	ST   -Y,R31
000c15 93ea      	ST   -Y,R30
000c16 2fa4      	MOV  R26,R20
000c17 940e 0ecb 	CALL _glcd_writemem
000c19 cfde      	RJMP _0x2000092
                 _0x2000094:
000c1a c02c      	RJMP _0x2000090
                 _0x2000091:
000c1b 30e9      	CPI  R30,LOW(0x9)
000c1c f411      	BRNE _0x2000095
000c1d e040      	LDI  R20,LOW(0)
000c1e c003      	RJMP _0x2000096
                 _0x2000095:
000c1f 30ea      	CPI  R30,LOW(0xA)
000c20 f4a9      	BRNE _0x200009C
000c21 ef4f      	LDI  R20,LOW(255)
                 _0x2000096:
000c22 940e 0f37 	CALL SUBOPT_0xC
000c24 2fae      	MOV  R26,R30
000c25 2fe3      	MOV  R30,R19
000c26 940e 0fa2 	CALL __LSRB12
000c28 2f4e      	MOV  R20,R30
                 _0x2000099:
000c29 930f      	PUSH R16
000c2a 5f0f      	SUBI R16,-1
000c2b 85ee      	LDD  R30,Y+14
000c2c 91af      	POP  R26
000c2d 17ae      	CP   R26,R30
000c2e f430      	BRSH _0x200009B
000c2f 940e 0f3b 	CALL SUBOPT_0xD
000c31 935a      	ST   -Y,R21
000c32 e0a0      	LDI  R26,LOW(0)
000c33 ddfd      	RCALL _pcd8544_wrmasked_G100
000c34 cff4      	RJMP _0x2000099
                 _0x200009B:
000c35 c011      	RJMP _0x2000090
                 _0x200009C:
                 _0x200009D:
000c36 930f      	PUSH R16
000c37 5f0f      	SUBI R16,-1
000c38 85ee      	LDD  R30,Y+14
000c39 91af      	POP  R26
000c3a 17ae      	CP   R26,R30
000c3b f458      	BRSH _0x200009F
000c3c 940e 0f4c 	CALL SUBOPT_0xF
000c3e 2fae      	MOV  R26,R30
000c3f 2fe3      	MOV  R30,R19
000c40 940e 0fa2 	CALL __LSRB12
000c42 93ea      	ST   -Y,R30
000c43 935a      	ST   -Y,R21
000c44 85ad      	LDD  R26,Y+13
000c45 ddeb      	RCALL _pcd8544_wrmasked_G100
000c46 cfef      	RJMP _0x200009D
                 _0x200009F:
                 _0x2000090:
                 _0x2000075:
000c47 85e8      	LDD  R30,Y+8
000c48 85aa      	LDD  R26,Y+10
000c49 85bb      	LDD  R27,Y+10+1
000c4a e0f0      	LDI  R31,0
000c4b 0fea      	ADD  R30,R26
000c4c 1ffb      	ADC  R31,R27
000c4d 87ea      	STD  Y+10,R30
000c4e 87fb      	STD  Y+10+1,R31
000c4f ceaa      	RJMP _0x2000049
                 _0x200004B:
                 _0x2120007:
000c50 940e 1002 	CALL __LOADLOCR6
000c52 9661      	ADIW R28,17
000c53 9508      	RET
                 ; .FEND
                 
                 	.CSEG
                 _glcd_clipx:
                 ; .FSTART _glcd_clipx
000c54 940e 0f59 	CALL SUBOPT_0x10
000c56 f024      	BRLT _0x2020003
000c57 e0e0      	LDI  R30,LOW(0)
000c58 e0f0      	LDI  R31,HIGH(0)
000c59 940c 0e82 	JMP  _0x2120002
                 _0x2020003:
000c5b 81a8      	LD   R26,Y
000c5c 81b9      	LDD  R27,Y+1
000c5d 35a4      	CPI  R26,LOW(0x54)
000c5e e0e0      	LDI  R30,HIGH(0x54)
000c5f 07be      	CPC  R27,R30
000c60 f024      	BRLT _0x2020004
000c61 e5e3      	LDI  R30,LOW(83)
000c62 e0f0      	LDI  R31,HIGH(83)
000c63 940c 0e82 	JMP  _0x2120002
                 _0x2020004:
000c65 81e8      	LD   R30,Y
000c66 81f9      	LDD  R31,Y+1
000c67 940c 0e82 	JMP  _0x2120002
                 ; .FEND
                 _glcd_clipy:
                 ; .FSTART _glcd_clipy
000c69 940e 0f59 	CALL SUBOPT_0x10
000c6b f024      	BRLT _0x2020005
000c6c e0e0      	LDI  R30,LOW(0)
000c6d e0f0      	LDI  R31,HIGH(0)
000c6e 940c 0e82 	JMP  _0x2120002
                 _0x2020005:
000c70 81a8      	LD   R26,Y
000c71 81b9      	LDD  R27,Y+1
000c72 97d0      	SBIW R26,48
000c73 f024      	BRLT _0x2020006
000c74 e2ef      	LDI  R30,LOW(47)
000c75 e0f0      	LDI  R31,HIGH(47)
000c76 940c 0e82 	JMP  _0x2120002
                 _0x2020006:
000c78 81e8      	LD   R30,Y
000c79 81f9      	LDD  R31,Y+1
000c7a 940c 0e82 	JMP  _0x2120002
                 ; .FEND
                 _glcd_imagesize:
                 ; .FSTART _glcd_imagesize
000c7c 93aa      	ST   -Y,R26
000c7d 930a      	ST   -Y,R16
000c7e 81aa      	LDD  R26,Y+2
000c7f 35a4      	CPI  R26,LOW(0x54)
000c80 f418      	BRSH _0x2020008
000c81 81a9      	LDD  R26,Y+1
000c82 33a0      	CPI  R26,LOW(0x30)
000c83 f038      	BRLO _0x2020007
                 _0x2020008:
                +
000c84 e0e0     +LDI R30 , LOW ( 0x0 )
000c85 e0f0     +LDI R31 , HIGH ( 0x0 )
000c86 e060     +LDI R22 , BYTE3 ( 0x0 )
000c87 e070     +LDI R23 , BYTE4 ( 0x0 )
                 	__GETD1N 0x0
000c88 8108      	LDD  R16,Y+0
000c89 940c 0ec9 	JMP  _0x2120001
                 _0x2020007:
000c8b 81e9      	LDD  R30,Y+1
000c8c 70e7      	ANDI R30,LOW(0x7)
000c8d 2f0e      	MOV  R16,R30
000c8e 81e9      	LDD  R30,Y+1
000c8f 95e6      	LSR  R30
000c90 95e6      	LSR  R30
000c91 95e6      	LSR  R30
000c92 83e9      	STD  Y+1,R30
000c93 3000      	CPI  R16,0
000c94 f011      	BREQ _0x202000A
000c95 5fef      	SUBI R30,-LOW(1)
000c96 83e9      	STD  Y+1,R30
                 _0x202000A:
000c97 81aa      	LDD  R26,Y+2
000c98 27bb      	CLR  R27
000c99 2788      	CLR  R24
000c9a 2799      	CLR  R25
000c9b 81e9      	LDD  R30,Y+1
000c9c 27ff      	CLR  R31
000c9d 2766      	CLR  R22
000c9e 2777      	CLR  R23
000c9f 940e 0fb2 	CALL __MULD12U
                +
000ca1 5fec     +SUBI R30 , LOW ( - 4 )
000ca2 4fff     +SBCI R31 , HIGH ( - 4 )
000ca3 4f6f     +SBCI R22 , BYTE3 ( - 4 )
000ca4 4f7f     +SBCI R23 , BYTE4 ( - 4 )
                 	__ADDD1N 4
000ca5 8108      	LDD  R16,Y+0
000ca6 940c 0ec9 	JMP  _0x2120001
                 ; .FEND
                 _glcd_putimagef:
                 ; .FSTART _glcd_putimagef
000ca8 93aa      	ST   -Y,R26
000ca9 940e 0ffd 	CALL __SAVELOCR4
000cab 81ac      	LDD  R26,Y+4
000cac 30a5      	CPI  R26,LOW(0x5)
000cad f500      	BRSH _0x2020038
000cae 81ed      	LDD  R30,Y+5
000caf 81fe      	LDD  R31,Y+5+1
000cb0 9105      	LPM  R16,Z+
000cb1 940e 0f60 	CALL SUBOPT_0x11
000cb3 9115      	LPM  R17,Z+
000cb4 940e 0f60 	CALL SUBOPT_0x11
000cb6 9125      	LPM  R18,Z+
000cb7 940e 0f60 	CALL SUBOPT_0x11
000cb9 9135      	LPM  R19,Z+
000cba 83ed      	STD  Y+5,R30
000cbb 83fe      	STD  Y+5+1,R31
000cbc 85e8      	LDD  R30,Y+8
000cbd 93ea      	ST   -Y,R30
000cbe 85e8      	LDD  R30,Y+8
000cbf 93ea      	ST   -Y,R30
000cc0 930a      	ST   -Y,R16
000cc1 932a      	ST   -Y,R18
000cc2 e0e1      	LDI  R30,LOW(1)
000cc3 93ea      	ST   -Y,R30
000cc4 85ea      	LDD  R30,Y+10
000cc5 85fb      	LDD  R31,Y+10+1
000cc6 93fa      	ST   -Y,R31
000cc7 93ea      	ST   -Y,R30
000cc8 85ab      	LDD  R26,Y+11
000cc9 dda0      	RCALL _glcd_block
000cca 930a      	ST   -Y,R16
000ccb 2fa2      	MOV  R26,R18
000ccc dfaf      	RCALL _glcd_imagesize
000ccd c004      	RJMP _0x2120006
                 _0x2020038:
                +
000cce e0e0     +LDI R30 , LOW ( 0x0 )
000ccf e0f0     +LDI R31 , HIGH ( 0x0 )
000cd0 e060     +LDI R22 , BYTE3 ( 0x0 )
000cd1 e070     +LDI R23 , BYTE4 ( 0x0 )
                 	__GETD1N 0x0
                 _0x2120006:
000cd2 940e 1004 	CALL __LOADLOCR4
000cd4 9629      	ADIW R28,9
000cd5 9508      	RET
                 ; .FEND
                 _glcd_moveto:
                 ; .FSTART _glcd_moveto
000cd6 93aa      	ST   -Y,R26
000cd7 81a9      	LDD  R26,Y+1
000cd8 27bb      	CLR  R27
000cd9 df7a      	RCALL _glcd_clipx
                +
000cda 93e0 03ae+STS _glcd_state + ( 2 ) , R30
                 	__PUTB1MN _glcd_state,2
000cdc 81a8      	LD   R26,Y
000cdd 27bb      	CLR  R27
000cde df8a      	RCALL _glcd_clipy
                +
000cdf 93e0 03af+STS _glcd_state + ( 3 ) , R30
                 	__PUTB1MN _glcd_state,3
000ce1 940c 0e82 	JMP  _0x2120002
                 ; .FEND
                 	#ifndef __SLEEP_DEFINED__
                 	#endif
                 
                 	.CSEG
                 _putchar:
                 ; .FSTART _putchar
000ce3 93aa      	ST   -Y,R26
                 _0x2060006:
000ce4 91e0 00c0 	LDS  R30,192
000ce6 72e0      	ANDI R30,LOW(0x20)
000ce7 f3e1      	BREQ _0x2060006
                 _0x2120005:
000ce8 81e8      	LD   R30,Y
000ce9 93e0 00c6 	STS  198,R30
                 _0x2120004:
000ceb 9621      	ADIW R28,1
000cec 9508      	RET
                 ; .FEND
                 _put_usart_G103:
                 ; .FSTART _put_usart_G103
000ced 93ba      	ST   -Y,R27
000cee 93aa      	ST   -Y,R26
000cef 81aa      	LDD  R26,Y+2
000cf0 dff2      	RCALL _putchar
000cf1 81a8      	LD   R26,Y
000cf2 81b9      	LDD  R27,Y+1
000cf3 940e 0f05 	CALL SUBOPT_0x4
000cf5 940c 0ec9 	JMP  _0x2120001
                 ; .FEND
                 __print_G103:
                 ; .FSTART __print_G103
000cf7 93ba      	ST   -Y,R27
000cf8 93aa      	ST   -Y,R26
000cf9 9726      	SBIW R28,6
000cfa 940e 0ffb 	CALL __SAVELOCR6
000cfc e000      	LDI  R16,0
000cfd 85ac      	LDD  R26,Y+12
000cfe 85bd      	LDD  R27,Y+12+1
000cff e0e0      	LDI  R30,LOW(0)
000d00 e0f0      	LDI  R31,HIGH(0)
000d01 93ed      	ST   X+,R30
000d02 93fc      	ST   X,R31
                 _0x206001C:
000d03 89ea      	LDD  R30,Y+18
000d04 89fb      	LDD  R31,Y+18+1
000d05 9631      	ADIW R30,1
000d06 8bea      	STD  Y+18,R30
000d07 8bfb      	STD  Y+18+1,R31
000d08 9731      	SBIW R30,1
000d09 91e4      	LPM  R30,Z
000d0a 2f3e      	MOV  R19,R30
000d0b 30e0      	CPI  R30,0
000d0c f409      	BRNE PC+2
000d0d c115      	RJMP _0x206001E
000d0e 2fe0      	MOV  R30,R16
000d0f 30e0      	CPI  R30,0
000d10 f439      	BRNE _0x2060022
000d11 3235      	CPI  R19,37
000d12 f411      	BRNE _0x2060023
000d13 e001      	LDI  R16,LOW(1)
000d14 c002      	RJMP _0x2060024
                 _0x2060023:
000d15 940e 0f63 	CALL SUBOPT_0x12
                 _0x2060024:
000d17 c10a      	RJMP _0x2060021
                 _0x2060022:
000d18 30e1      	CPI  R30,LOW(0x1)
000d19 f4a9      	BRNE _0x2060025
000d1a 3235      	CPI  R19,37
000d1b f419      	BRNE _0x2060026
000d1c 940e 0f63 	CALL SUBOPT_0x12
000d1e c102      	RJMP _0x20600D2
                 _0x2060026:
000d1f e002      	LDI  R16,LOW(2)
000d20 e050      	LDI  R21,LOW(0)
000d21 e010      	LDI  R17,LOW(0)
000d22 323d      	CPI  R19,45
000d23 f411      	BRNE _0x2060027
000d24 e011      	LDI  R17,LOW(1)
000d25 c0fc      	RJMP _0x2060021
                 _0x2060027:
000d26 323b      	CPI  R19,43
000d27 f411      	BRNE _0x2060028
000d28 e25b      	LDI  R21,LOW(43)
000d29 c0f8      	RJMP _0x2060021
                 _0x2060028:
000d2a 3230      	CPI  R19,32
000d2b f411      	BRNE _0x2060029
000d2c e250      	LDI  R21,LOW(32)
000d2d c0f4      	RJMP _0x2060021
                 _0x2060029:
000d2e c002      	RJMP _0x206002A
                 _0x2060025:
000d2f 30e2      	CPI  R30,LOW(0x2)
000d30 f439      	BRNE _0x206002B
                 _0x206002A:
000d31 e040      	LDI  R20,LOW(0)
000d32 e003      	LDI  R16,LOW(3)
000d33 3330      	CPI  R19,48
000d34 f411      	BRNE _0x206002C
000d35 6810      	ORI  R17,LOW(128)
000d36 c0eb      	RJMP _0x2060021
                 _0x206002C:
000d37 c003      	RJMP _0x206002D
                 _0x206002B:
000d38 30e3      	CPI  R30,LOW(0x3)
000d39 f009      	BREQ PC+2
000d3a c0e7      	RJMP _0x2060021
                 _0x206002D:
000d3b 3330      	CPI  R19,48
000d3c f010      	BRLO _0x2060030
000d3d 333a      	CPI  R19,58
000d3e f008      	BRLO _0x2060031
                 _0x2060030:
000d3f c007      	RJMP _0x206002F
                 _0x2060031:
000d40 e0aa      	LDI  R26,LOW(10)
000d41 9f4a      	MUL  R20,R26
000d42 2d40      	MOV  R20,R0
000d43 2fe3      	MOV  R30,R19
000d44 53e0      	SUBI R30,LOW(48)
000d45 0f4e      	ADD  R20,R30
000d46 c0db      	RJMP _0x2060021
                 _0x206002F:
000d47 2fe3      	MOV  R30,R19
000d48 36e3      	CPI  R30,LOW(0x63)
000d49 f449      	BRNE _0x2060035
000d4a 940e 0f6a 	CALL SUBOPT_0x13
000d4c 89e8      	LDD  R30,Y+16
000d4d 89f9      	LDD  R31,Y+16+1
000d4e 81a4      	LDD  R26,Z+4
000d4f 93aa      	ST   -Y,R26
000d50 940e 0f70 	CALL SUBOPT_0x14
000d52 c0ce      	RJMP _0x2060036
                 _0x2060035:
000d53 37e3      	CPI  R30,LOW(0x73)
000d54 f441      	BRNE _0x2060038
000d55 940e 0f6a 	CALL SUBOPT_0x13
000d57 940e 0f76 	CALL SUBOPT_0x15
000d59 940e 0e60 	CALL _strlen
000d5b 2f0e      	MOV  R16,R30
000d5c c00a      	RJMP _0x2060039
                 _0x2060038:
000d5d 37e0      	CPI  R30,LOW(0x70)
000d5e f461      	BRNE _0x206003B
000d5f 940e 0f6a 	CALL SUBOPT_0x13
000d61 940e 0f76 	CALL SUBOPT_0x15
000d63 940e 0e6c 	CALL _strlenf
000d65 2f0e      	MOV  R16,R30
000d66 6018      	ORI  R17,LOW(8)
                 _0x2060039:
000d67 6012      	ORI  R17,LOW(2)
000d68 771f      	ANDI R17,LOW(127)
000d69 e020      	LDI  R18,LOW(0)
000d6a c034      	RJMP _0x206003C
                 _0x206003B:
000d6b 36e4      	CPI  R30,LOW(0x64)
000d6c f011      	BREQ _0x206003F
000d6d 36e9      	CPI  R30,LOW(0x69)
000d6e f411      	BRNE _0x2060040
                 _0x206003F:
000d6f 6014      	ORI  R17,LOW(4)
000d70 c002      	RJMP _0x2060041
                 _0x2060040:
000d71 37e5      	CPI  R30,LOW(0x75)
000d72 f431      	BRNE _0x2060042
                 _0x2060041:
000d73 e4e2      	LDI  R30,LOW(_tbl10_G103*2)
000d74 e0fc      	LDI  R31,HIGH(_tbl10_G103*2)
000d75 83ee      	STD  Y+6,R30
000d76 83ff      	STD  Y+6+1,R31
000d77 e005      	LDI  R16,LOW(5)
000d78 c00c      	RJMP _0x2060043
                 _0x2060042:
000d79 35e8      	CPI  R30,LOW(0x58)
000d7a f411      	BRNE _0x2060045
000d7b 6018      	ORI  R17,LOW(8)
000d7c c003      	RJMP _0x2060046
                 _0x2060045:
000d7d 37e8      	CPI  R30,LOW(0x78)
000d7e f009      	BREQ PC+2
000d7f c0a1      	RJMP _0x2060077
                 _0x2060046:
000d80 e4ec      	LDI  R30,LOW(_tbl16_G103*2)
000d81 e0fc      	LDI  R31,HIGH(_tbl16_G103*2)
000d82 83ee      	STD  Y+6,R30
000d83 83ff      	STD  Y+6+1,R31
000d84 e004      	LDI  R16,LOW(4)
                 _0x2060043:
000d85 ff12      	SBRS R17,2
000d86 c014      	RJMP _0x2060048
000d87 940e 0f6a 	CALL SUBOPT_0x13
000d89 940e 0f80 	CALL SUBOPT_0x16
000d8b 85ab      	LDD  R26,Y+11
000d8c 23aa      	TST  R26
000d8d f43a      	BRPL _0x2060049
000d8e 85ea      	LDD  R30,Y+10
000d8f 85fb      	LDD  R31,Y+10+1
000d90 940e 0f96 	CALL __ANEGW1
000d92 87ea      	STD  Y+10,R30
000d93 87fb      	STD  Y+10+1,R31
000d94 e25d      	LDI  R21,LOW(45)
                 _0x2060049:
000d95 3050      	CPI  R21,0
000d96 f011      	BREQ _0x206004A
000d97 5f0f      	SUBI R16,-LOW(1)
000d98 c001      	RJMP _0x206004B
                 _0x206004A:
000d99 7f1b      	ANDI R17,LOW(251)
                 _0x206004B:
000d9a c004      	RJMP _0x206004C
                 _0x2060048:
000d9b 940e 0f6a 	CALL SUBOPT_0x13
000d9d 940e 0f80 	CALL SUBOPT_0x16
                 _0x206004C:
                 _0x206003C:
000d9f fd10      	SBRC R17,0
000da0 c011      	RJMP _0x206004D
                 _0x206004E:
000da1 1704      	CP   R16,R20
000da2 f478      	BRSH _0x2060050
000da3 ff17      	SBRS R17,7
000da4 c008      	RJMP _0x2060051
000da5 ff12      	SBRS R17,2
000da6 c004      	RJMP _0x2060052
000da7 7f1b      	ANDI R17,LOW(251)
000da8 2f35      	MOV  R19,R21
000da9 5001      	SUBI R16,LOW(1)
000daa c001      	RJMP _0x2060053
                 _0x2060052:
000dab e330      	LDI  R19,LOW(48)
                 _0x2060053:
000dac c001      	RJMP _0x2060054
                 _0x2060051:
000dad e230      	LDI  R19,LOW(32)
                 _0x2060054:
000dae 940e 0f63 	CALL SUBOPT_0x12
000db0 5041      	SUBI R20,LOW(1)
000db1 cfef      	RJMP _0x206004E
                 _0x2060050:
                 _0x206004D:
000db2 2f20      	MOV  R18,R16
000db3 ff11      	SBRS R17,1
000db4 c017      	RJMP _0x2060055
                 _0x2060056:
000db5 3020      	CPI  R18,0
000db6 f0a1      	BREQ _0x2060058
000db7 ff13      	SBRS R17,3
000db8 c006      	RJMP _0x2060059
000db9 81ee      	LDD  R30,Y+6
000dba 81ff      	LDD  R31,Y+6+1
000dbb 9135      	LPM  R19,Z+
000dbc 83ee      	STD  Y+6,R30
000dbd 83ff      	STD  Y+6+1,R31
000dbe c005      	RJMP _0x206005A
                 _0x2060059:
000dbf 81ae      	LDD  R26,Y+6
000dc0 81bf      	LDD  R27,Y+6+1
000dc1 913d      	LD   R19,X+
000dc2 83ae      	STD  Y+6,R26
000dc3 83bf      	STD  Y+6+1,R27
                 _0x206005A:
000dc4 940e 0f63 	CALL SUBOPT_0x12
000dc6 3040      	CPI  R20,0
000dc7 f009      	BREQ _0x206005B
000dc8 5041      	SUBI R20,LOW(1)
                 _0x206005B:
000dc9 5021      	SUBI R18,LOW(1)
000dca cfea      	RJMP _0x2060056
                 _0x2060058:
000dcb c04b      	RJMP _0x206005C
                 _0x2060055:
                 _0x206005E:
000dcc e330      	LDI  R19,LOW(48)
000dcd 81ee      	LDD  R30,Y+6
000dce 81ff      	LDD  R31,Y+6+1
000dcf 940e 0fd6 	CALL __GETW1PF
000dd1 87e8      	STD  Y+8,R30
000dd2 87f9      	STD  Y+8+1,R31
000dd3 81ee      	LDD  R30,Y+6
000dd4 81ff      	LDD  R31,Y+6+1
000dd5 9632      	ADIW R30,2
000dd6 83ee      	STD  Y+6,R30
000dd7 83ff      	STD  Y+6+1,R31
                 _0x2060060:
000dd8 85e8      	LDD  R30,Y+8
000dd9 85f9      	LDD  R31,Y+8+1
000dda 85aa      	LDD  R26,Y+10
000ddb 85bb      	LDD  R27,Y+10+1
000ddc 17ae      	CP   R26,R30
000ddd 07bf      	CPC  R27,R31
000dde f050      	BRLO _0x2060062
000ddf 5f3f      	SUBI R19,-LOW(1)
000de0 85a8      	LDD  R26,Y+8
000de1 85b9      	LDD  R27,Y+8+1
000de2 85ea      	LDD  R30,Y+10
000de3 85fb      	LDD  R31,Y+10+1
000de4 1bea      	SUB  R30,R26
000de5 0bfb      	SBC  R31,R27
000de6 87ea      	STD  Y+10,R30
000de7 87fb      	STD  Y+10+1,R31
000de8 cfef      	RJMP _0x2060060
                 _0x2060062:
000de9 333a      	CPI  R19,58
000dea f028      	BRLO _0x2060063
000deb ff13      	SBRS R17,3
000dec c002      	RJMP _0x2060064
000ded 5f39      	SUBI R19,-LOW(7)
000dee c001      	RJMP _0x2060065
                 _0x2060064:
000def 5d39      	SUBI R19,-LOW(39)
                 _0x2060065:
                 _0x2060063:
000df0 fd14      	SBRC R17,4
000df1 c01a      	RJMP _0x2060067
000df2 3331      	CPI  R19,49
000df3 f420      	BRSH _0x2060069
000df4 85a8      	LDD  R26,Y+8
000df5 85b9      	LDD  R27,Y+8+1
000df6 9711      	SBIW R26,1
000df7 f409      	BRNE _0x2060068
                 _0x2060069:
000df8 c009      	RJMP _0x20600D3
                 _0x2060068:
000df9 1742      	CP   R20,R18
000dfa f010      	BRLO _0x206006D
000dfb ff10      	SBRS R17,0
000dfc c001      	RJMP _0x206006E
                 _0x206006D:
000dfd c013      	RJMP _0x206006C
                 _0x206006E:
000dfe e230      	LDI  R19,LOW(32)
000dff ff17      	SBRS R17,7
000e00 c00b      	RJMP _0x206006F
000e01 e330      	LDI  R19,LOW(48)
                 _0x20600D3:
000e02 6110      	ORI  R17,LOW(16)
000e03 ff12      	SBRS R17,2
000e04 c007      	RJMP _0x2060070
000e05 7f1b      	ANDI R17,LOW(251)
000e06 935a      	ST   -Y,R21
000e07 940e 0f70 	CALL SUBOPT_0x14
000e09 3040      	CPI  R20,0
000e0a f009      	BREQ _0x2060071
000e0b 5041      	SUBI R20,LOW(1)
                 _0x2060071:
                 _0x2060070:
                 _0x206006F:
                 _0x2060067:
000e0c 940e 0f63 	CALL SUBOPT_0x12
000e0e 3040      	CPI  R20,0
000e0f f009      	BREQ _0x2060072
000e10 5041      	SUBI R20,LOW(1)
                 _0x2060072:
                 _0x206006C:
000e11 5021      	SUBI R18,LOW(1)
000e12 85a8      	LDD  R26,Y+8
000e13 85b9      	LDD  R27,Y+8+1
000e14 9712      	SBIW R26,2
000e15 f008      	BRLO _0x206005F
000e16 cfb5      	RJMP _0x206005E
                 _0x206005F:
                 _0x206005C:
000e17 ff10      	SBRS R17,0
000e18 c008      	RJMP _0x2060073
                 _0x2060074:
000e19 3040      	CPI  R20,0
000e1a f031      	BREQ _0x2060076
000e1b 5041      	SUBI R20,LOW(1)
000e1c e2e0      	LDI  R30,LOW(32)
000e1d 93ea      	ST   -Y,R30
000e1e 940e 0f70 	CALL SUBOPT_0x14
000e20 cff8      	RJMP _0x2060074
                 _0x2060076:
                 _0x2060073:
                 _0x2060077:
                 _0x2060036:
                 _0x20600D2:
000e21 e000      	LDI  R16,LOW(0)
                 _0x2060021:
000e22 cee0      	RJMP _0x206001C
                 _0x206001E:
000e23 85ac      	LDD  R26,Y+12
000e24 85bd      	LDD  R27,Y+12+1
000e25 940e 0fd2 	CALL __GETW1P
000e27 940e 1002 	CALL __LOADLOCR6
000e29 9664      	ADIW R28,20
000e2a 9508      	RET
                 ; .FEND
                 _printf:
                 ; .FSTART _printf
000e2b 92ff      	PUSH R15
000e2c 2ef8      	MOV  R15,R24
000e2d 9726      	SBIW R28,6
000e2e 931a      	ST   -Y,R17
000e2f 930a      	ST   -Y,R16
000e30 01de      	MOVW R26,R28
000e31 9614      	ADIW R26,4
000e32 940e 0f92 	CALL __ADDW2R15
000e34 018d      	MOVW R16,R26
000e35 e0e0      	LDI  R30,LOW(0)
000e36 83ec      	STD  Y+4,R30
000e37 83ed      	STD  Y+4+1,R30
000e38 83ee      	STD  Y+6,R30
000e39 83ef      	STD  Y+6+1,R30
000e3a 01de      	MOVW R26,R28
000e3b 9618      	ADIW R26,8
000e3c 940e 0f92 	CALL __ADDW2R15
000e3e 940e 0fd2 	CALL __GETW1P
000e40 93fa      	ST   -Y,R31
000e41 93ea      	ST   -Y,R30
000e42 931a      	ST   -Y,R17
000e43 930a      	ST   -Y,R16
000e44 eeed      	LDI  R30,LOW(_put_usart_G103)
000e45 e0fc      	LDI  R31,HIGH(_put_usart_G103)
000e46 93fa      	ST   -Y,R31
000e47 93ea      	ST   -Y,R30
000e48 01de      	MOVW R26,R28
000e49 9618      	ADIW R26,8
000e4a deac      	RCALL __print_G103
000e4b 8119      	LDD  R17,Y+1
000e4c 8108      	LDD  R16,Y+0
000e4d 9628      	ADIW R28,8
000e4e 90ff      	POP  R15
000e4f 9508      	RET
                 ; .FEND
                 
                 	.CSEG
                 _memset:
                 ; .FSTART _memset
000e50 93ba      	ST   -Y,R27
000e51 93aa      	ST   -Y,R26
000e52 81b9          ldd  r27,y+1
000e53 81a8          ld   r26,y
000e54 9610          adiw r26,0
000e55 f031          breq memset1
000e56 81fc          ldd  r31,y+4
000e57 81eb          ldd  r30,y+3
000e58 816a          ldd  r22,y+2
                 memset0:
000e59 9361          st   z+,r22
000e5a 9711          sbiw r26,1
000e5b f7e9          brne memset0
                 memset1:
000e5c 81eb          ldd  r30,y+3
000e5d 81fc          ldd  r31,y+4
                 _0x2120003:
000e5e 9625      	ADIW R28,5
000e5f 9508      	RET
                 ; .FEND
                 _strlen:
                 ; .FSTART _strlen
000e60 93ba      	ST   -Y,R27
000e61 93aa      	ST   -Y,R26
000e62 91a9          ld   r26,y+
000e63 91b9          ld   r27,y+
000e64 27ee          clr  r30
000e65 27ff          clr  r31
                 strlen0:
000e66 916d          ld   r22,x+
000e67 2366          tst  r22
000e68 f011          breq strlen1
000e69 9631          adiw r30,1
000e6a cffb          rjmp strlen0
                 strlen1:
000e6b 9508          ret
                 ; .FEND
                 _strlenf:
                 ; .FSTART _strlenf
000e6c 93ba      	ST   -Y,R27
000e6d 93aa      	ST   -Y,R26
000e6e 27aa          clr  r26
000e6f 27bb          clr  r27
000e70 91e9          ld   r30,y+
000e71 91f9          ld   r31,y+
                 strlenf0:
000e72 9005      	lpm  r0,z+
000e73 2000          tst  r0
000e74 f011          breq strlenf1
000e75 9611          adiw r26,1
000e76 cffb          rjmp strlenf0
                 strlenf1:
000e77 01fd          movw r30,r26
000e78 9508          ret
                 ; .FEND
                 
                 	.CSEG
                 _glcd_getmask:
                 ; .FSTART _glcd_getmask
000e79 93aa      	ST   -Y,R26
000e7a 81e8      	LD   R30,Y
000e7b e0f0      	LDI  R31,0
000e7c 5ce8      	SUBI R30,LOW(-__glcd_mask*2)
000e7d 4ff3      	SBCI R31,HIGH(-__glcd_mask*2)
000e7e 91a4      	LPM  R26,Z
000e7f 81e9      	LDD  R30,Y+1
000e80 940e 0f9a 	CALL __LSLB12
                 _0x2120002:
000e82 9622      	ADIW R28,2
000e83 9508      	RET
                 ; .FEND
                 _glcd_mappixcolor1bit:
                 ; .FSTART _glcd_mappixcolor1bit
000e84 93aa      	ST   -Y,R26
000e85 930a      	ST   -Y,R16
000e86 81e9      	LDD  R30,Y+1
000e87 30e7      	CPI  R30,LOW(0x7)
000e88 f011      	BREQ _0x20A0007
000e89 30ea      	CPI  R30,LOW(0xA)
000e8a f419      	BRNE _0x20A0008
                 _0x20A0007:
000e8b 9100 03ac 	LDS  R16,_glcd_state
000e8d c009      	RJMP _0x20A0009
                 _0x20A0008:
000e8e 30e9      	CPI  R30,LOW(0x9)
000e8f f419      	BRNE _0x20A000B
                +
000e90 9100 03ad+LDS R16 , _glcd_state + ( 1 )
                 	__GETBRMN 16,_glcd_state,1
000e92 c004      	RJMP _0x20A0009
                 _0x20A000B:
000e93 30e8      	CPI  R30,LOW(0x8)
000e94 f4a1      	BRNE _0x20A0005
                +
000e95 9100 03bc+LDS R16 , _glcd_state + ( 16 )
                 	__GETBRMN 16,_glcd_state,16
                 _0x20A0009:
                +
000e97 91e0 03ad+LDS R30 , _glcd_state + ( 1 )
                 	__GETB1MN _glcd_state,1
000e99 30e0      	CPI  R30,0
000e9a f049      	BREQ _0x20A000E
000e9b 3000      	CPI  R16,0
000e9c f019      	BREQ _0x20A000F
000e9d efef      	LDI  R30,LOW(255)
000e9e 8108      	LDD  R16,Y+0
000e9f c029      	RJMP _0x2120001
                 _0x20A000F:
000ea0 81ea      	LDD  R30,Y+2
000ea1 95e0      	COM  R30
000ea2 8108      	LDD  R16,Y+0
000ea3 c025      	RJMP _0x2120001
                 _0x20A000E:
000ea4 3000      	CPI  R16,0
000ea5 f419      	BRNE _0x20A0011
000ea6 e0e0      	LDI  R30,LOW(0)
000ea7 8108      	LDD  R16,Y+0
000ea8 c020      	RJMP _0x2120001
                 _0x20A0011:
                 _0x20A0005:
000ea9 81ea      	LDD  R30,Y+2
000eaa 8108      	LDD  R16,Y+0
000eab c01d      	RJMP _0x2120001
                 ; .FEND
                 _glcd_readmem:
                 ; .FSTART _glcd_readmem
000eac 93ba      	ST   -Y,R27
000ead 93aa      	ST   -Y,R26
000eae 81ea      	LDD  R30,Y+2
000eaf 30e1      	CPI  R30,LOW(0x1)
000eb0 f421      	BRNE _0x20A0015
000eb1 81e8      	LD   R30,Y
000eb2 81f9      	LDD  R31,Y+1
000eb3 91e4      	LPM  R30,Z
000eb4 c014      	RJMP _0x2120001
                 _0x20A0015:
000eb5 30e2      	CPI  R30,LOW(0x2)
000eb6 f429      	BRNE _0x20A0016
000eb7 81a8      	LD   R26,Y
000eb8 81b9      	LDD  R27,Y+1
000eb9 940e 0fda 	CALL __EEPROMRDB
000ebb c00d      	RJMP _0x2120001
                 _0x20A0016:
000ebc 30e3      	CPI  R30,LOW(0x3)
000ebd f441      	BRNE _0x20A0018
000ebe 81a8      	LD   R26,Y
000ebf 81b9      	LDD  R27,Y+1
                +
000ec0 91e0 03c5+LDS R30 , _glcd_state + ( 25 )
000ec2 91f0 03c6+LDS R31 , _glcd_state + ( 25 ) + 1
000ec4 9509     +ICALL
                 	__CALL1MN _glcd_state,25
000ec5 c003      	RJMP _0x2120001
                 _0x20A0018:
000ec6 81a8      	LD   R26,Y
000ec7 81b9      	LDD  R27,Y+1
000ec8 91ec      	LD   R30,X
                 _0x2120001:
000ec9 9623      	ADIW R28,3
000eca 9508      	RET
                 ; .FEND
                 _glcd_writemem:
                 ; .FSTART _glcd_writemem
000ecb 93aa      	ST   -Y,R26
000ecc 81eb      	LDD  R30,Y+3
000ecd 30e0      	CPI  R30,0
000ece f429      	BRNE _0x20A001C
000ecf 81e8      	LD   R30,Y
000ed0 81a9      	LDD  R26,Y+1
000ed1 81ba      	LDD  R27,Y+1+1
000ed2 93ec      	ST   X,R30
000ed3 c014      	RJMP _0x20A001B
                 _0x20A001C:
000ed4 30e2      	CPI  R30,LOW(0x2)
000ed5 f431      	BRNE _0x20A001D
000ed6 81e8      	LD   R30,Y
000ed7 81a9      	LDD  R26,Y+1
000ed8 81ba      	LDD  R27,Y+1+1
000ed9 940e 0fe6 	CALL __EEPROMWRB
000edb c00c      	RJMP _0x20A001B
                 _0x20A001D:
000edc 30e3      	CPI  R30,LOW(0x3)
000edd f451      	BRNE _0x20A001B
000ede 81e9      	LDD  R30,Y+1
000edf 81fa      	LDD  R31,Y+1+1
000ee0 93fa      	ST   -Y,R31
000ee1 93ea      	ST   -Y,R30
000ee2 81aa      	LDD  R26,Y+2
                +
000ee3 91e0 03c7+LDS R30 , _glcd_state + ( 27 )
000ee5 91f0 03c8+LDS R31 , _glcd_state + ( 27 ) + 1
000ee7 9509     +ICALL
                 	__CALL1MN _glcd_state,27
                 _0x20A001B:
000ee8 9624      	ADIW R28,4
000ee9 9508      	RET
                 ; .FEND
                 
                 	.CSEG
                 
                 	.CSEG
                 
                 	.CSEG
                 
                 	.DSEG
                 
                 	.CSEG
                 
                 	.DSEG
                 _glcd_state:
0003ac           	.BYTE 0x1D
                 _cursor:
0003c9           	.BYTE 0x1
                 _voltDigitalX:
0003ca           	.BYTE 0x2
                 _voltDigitalY:
0003cc           	.BYTE 0x2
                 _dis1:
0003ce           	.BYTE 0x2
                 _dis2:
0003d0           	.BYTE 0x2
                 _dis3:
0003d2           	.BYTE 0x2
                 _dis4:
0003d4           	.BYTE 0x2
                 _i:
0003d6           	.BYTE 0x2
                 _juego1:
0003d8           	.BYTE 0x2
                 _play:
0003da           	.BYTE 0x2
                 _vidas:
0003dc           	.BYTE 0x2
                 _dato:
0003de           	.BYTE 0x1
                 _gfx_addr_G100:
0003df           	.BYTE 0x2
                 _gfx_buffer_G100:
0003e1           	.BYTE 0x1F8
                 __seed_G108:
0005d9           	.BYTE 0x4
                 
                 	.CSEG
                 ;OPTIMIZER ADDED SUBROUTINE, CALLED 6 TIMES, CODE SIZE REDUCTION:7 WORDS
                 SUBOPT_0x0:
000eea e0e0      	LDI  R30,LOW(0)
000eeb 93ea      	ST   -Y,R30
000eec 93ea      	ST   -Y,R30
000eed 9508      	RET
                 
                 ;OPTIMIZER ADDED SUBROUTINE, CALLED 2 TIMES, CODE SIZE REDUCTION:2 WORDS
                 SUBOPT_0x1:
000eee e4e8      	LDI  R30,LOW(_imagen11*2)
000eef e0f4      	LDI  R31,HIGH(_imagen11*2)
000ef0 93fa      	ST   -Y,R31
000ef1 93ea      	ST   -Y,R30
000ef2 e0a0      	LDI  R26,LOW(0)
000ef3 940c 0ca8 	JMP  _glcd_putimagef
                 
                 ;OPTIMIZER ADDED SUBROUTINE, CALLED 2 TIMES, CODE SIZE REDUCTION:4 WORDS
                 SUBOPT_0x2:
000ef5 93fa      	ST   -Y,R31
000ef6 93ea      	ST   -Y,R30
000ef7 e0a0      	LDI  R26,LOW(0)
000ef8 940e 0ca8 	CALL _glcd_putimagef
000efa e8a8      	LDI  R26,LOW(5000)
000efb e1b3      	LDI  R27,HIGH(5000)
000efc 940c 0f88 	JMP  _delay_ms
                 
                 ;OPTIMIZER ADDED SUBROUTINE, CALLED 3 TIMES, CODE SIZE REDUCTION:5 WORDS
                 SUBOPT_0x3:
000efe 93fa      	ST   -Y,R31
000eff 93ea      	ST   -Y,R30
000f00 e080      	LDI  R24,0
000f01 940e 0e2b 	CALL _printf
000f03 9622      	ADIW R28,2
000f04 9508      	RET
                 
                 ;OPTIMIZER ADDED SUBROUTINE, CALLED 6 TIMES, CODE SIZE REDUCTION:12 WORDS
                 SUBOPT_0x4:
000f05 91ed      	LD   R30,X+
000f06 91fd      	LD   R31,X+
000f07 9631      	ADIW R30,1
000f08 93fe      	ST   -X,R31
000f09 93ee      	ST   -X,R30
000f0a 9508      	RET
                 
                 ;OPTIMIZER ADDED SUBROUTINE, CALLED 4 TIMES, CODE SIZE REDUCTION:3 WORDS
                 SUBOPT_0x5:
000f0b eba8      	LDI  R26,LOW(3000)
000f0c e0bb      	LDI  R27,HIGH(3000)
000f0d 940c 0f88 	JMP  _delay_ms
                 
                 ;OPTIMIZER ADDED SUBROUTINE, CALLED 4 TIMES, CODE SIZE REDUCTION:3 WORDS
                 SUBOPT_0x6:
000f0f edaf      	LDI  R26,LOW(_gfx_addr_G100)
000f10 e0b3      	LDI  R27,HIGH(_gfx_addr_G100)
000f11 cff3      	RJMP SUBOPT_0x4
                 
                 ;OPTIMIZER ADDED SUBROUTINE, CALLED 3 TIMES, CODE SIZE REDUCTION:1 WORDS
                 SUBOPT_0x7:
000f12 0fea      	ADD  R30,R26
000f13 1ffb      	ADC  R31,R27
000f14 83ee      	STD  Y+6,R30
000f15 83ff      	STD  Y+6+1,R31
000f16 9508      	RET
                 
                 ;OPTIMIZER ADDED SUBROUTINE, CALLED 2 TIMES, CODE SIZE REDUCTION:8 WORDS
                 SUBOPT_0x8:
000f17 85ec      	LDD  R30,Y+12
000f18 93ea      	ST   -Y,R30
000f19 81ef      	LDD  R30,Y+7
000f1a 85f8      	LDD  R31,Y+7+1
000f1b 9631      	ADIW R30,1
000f1c 83ef      	STD  Y+7,R30
000f1d 87f8      	STD  Y+7+1,R31
000f1e 9731      	SBIW R30,1
000f1f 93fa      	ST   -Y,R31
000f20 93ea      	ST   -Y,R30
000f21 e0a0      	LDI  R26,LOW(0)
000f22 940c 0ecb 	JMP  _glcd_writemem
                 
                 ;OPTIMIZER ADDED SUBROUTINE, CALLED 3 TIMES, CODE SIZE REDUCTION:1 WORDS
                 SUBOPT_0x9:
000f24 931a      	ST   -Y,R17
000f25 89a8      	LDD  R26,Y+16
000f26 940c 094c 	JMP  _pcd8544_setaddr_G100
                 
                 ;OPTIMIZER ADDED SUBROUTINE, CALLED 4 TIMES, CODE SIZE REDUCTION:15 WORDS
                 SUBOPT_0xA:
000f28 85ec      	LDD  R30,Y+12
000f29 93ea      	ST   -Y,R30
000f2a 81ef      	LDD  R30,Y+7
000f2b 85f8      	LDD  R31,Y+7+1
000f2c 9631      	ADIW R30,1
000f2d 83ef      	STD  Y+7,R30
000f2e 87f8      	STD  Y+7+1,R31
000f2f 9731      	SBIW R30,1
000f30 9508      	RET
                 
                 ;OPTIMIZER ADDED SUBROUTINE, CALLED 3 TIMES, CODE SIZE REDUCTION:5 WORDS
                 SUBOPT_0xB:
000f31 2766      	CLR  R22
000f32 2777      	CLR  R23
000f33 01df      	MOVW R26,R30
000f34 01cb      	MOVW R24,R22
000f35 940c 0eac 	JMP  _glcd_readmem
                 
                 ;OPTIMIZER ADDED SUBROUTINE, CALLED 3 TIMES, CODE SIZE REDUCTION:1 WORDS
                 SUBOPT_0xC:
000f37 934a      	ST   -Y,R20
000f38 85aa      	LDD  R26,Y+10
000f39 940c 0e84 	JMP  _glcd_mappixcolor1bit
                 
                 ;OPTIMIZER ADDED SUBROUTINE, CALLED 3 TIMES, CODE SIZE REDUCTION:3 WORDS
                 SUBOPT_0xD:
000f3b 931a      	ST   -Y,R17
000f3c 9513      	INC  R17
000f3d 89e8      	LDD  R30,Y+16
000f3e 93ea      	ST   -Y,R30
000f3f 934a      	ST   -Y,R20
000f40 9508      	RET
                 
                 ;OPTIMIZER ADDED SUBROUTINE, CALLED 2 TIMES, CODE SIZE REDUCTION:5 WORDS
                 SUBOPT_0xE:
000f41 2f4e      	MOV  R20,R30
000f42 85ec      	LDD  R30,Y+12
000f43 93ea      	ST   -Y,R30
000f44 81af      	LDD  R26,Y+7
000f45 85b8      	LDD  R27,Y+7+1
000f46 2788      	CLR  R24
000f47 2799      	CLR  R25
000f48 940e 0eac 	CALL _glcd_readmem
000f4a 2e1e      	MOV  R1,R30
000f4b 9508      	RET
                 
                 ;OPTIMIZER ADDED SUBROUTINE, CALLED 2 TIMES, CODE SIZE REDUCTION:9 WORDS
                 SUBOPT_0xF:
000f4c 931a      	ST   -Y,R17
000f4d 9513      	INC  R17
000f4e 89e8      	LDD  R30,Y+16
000f4f 93ea      	ST   -Y,R30
000f50 85ee      	LDD  R30,Y+14
000f51 93ea      	ST   -Y,R30
000f52 85e9      	LDD  R30,Y+9
000f53 85fa      	LDD  R31,Y+9+1
000f54 9631      	ADIW R30,1
000f55 87e9      	STD  Y+9,R30
000f56 87fa      	STD  Y+9+1,R31
000f57 9731      	SBIW R30,1
000f58 cfd8      	RJMP SUBOPT_0xB
                 
                 ;OPTIMIZER ADDED SUBROUTINE, CALLED 2 TIMES, CODE SIZE REDUCTION:1 WORDS
                 SUBOPT_0x10:
000f59 93ba      	ST   -Y,R27
000f5a 93aa      	ST   -Y,R26
000f5b 81a8      	LD   R26,Y
000f5c 81b9      	LDD  R27,Y+1
000f5d 940e 0ff7 	CALL __CPW02
000f5f 9508      	RET
                 
                 ;OPTIMIZER ADDED SUBROUTINE, CALLED 3 TIMES, CODE SIZE REDUCTION:1 WORDS
                 SUBOPT_0x11:
000f60 83ed      	STD  Y+5,R30
000f61 83fe      	STD  Y+5+1,R31
000f62 9508      	RET
                 
                 ;OPTIMIZER ADDED SUBROUTINE, CALLED 5 TIMES, CODE SIZE REDUCTION:13 WORDS
                 SUBOPT_0x12:
000f63 933a      	ST   -Y,R19
000f64 85ad      	LDD  R26,Y+13
000f65 85be      	LDD  R27,Y+13+1
000f66 85ef      	LDD  R30,Y+15
000f67 89f8      	LDD  R31,Y+15+1
000f68 9509      	ICALL
000f69 9508      	RET
                 
                 ;OPTIMIZER ADDED SUBROUTINE, CALLED 5 TIMES, CODE SIZE REDUCTION:9 WORDS
                 SUBOPT_0x13:
000f6a 89e8      	LDD  R30,Y+16
000f6b 89f9      	LDD  R31,Y+16+1
000f6c 9734      	SBIW R30,4
000f6d 8be8      	STD  Y+16,R30
000f6e 8bf9      	STD  Y+16+1,R31
000f6f 9508      	RET
                 
                 ;OPTIMIZER ADDED SUBROUTINE, CALLED 3 TIMES, CODE SIZE REDUCTION:3 WORDS
                 SUBOPT_0x14:
000f70 85ad      	LDD  R26,Y+13
000f71 85be      	LDD  R27,Y+13+1
000f72 85ef      	LDD  R30,Y+15
000f73 89f8      	LDD  R31,Y+15+1
000f74 9509      	ICALL
000f75 9508      	RET
                 
                 ;OPTIMIZER ADDED SUBROUTINE, CALLED 2 TIMES, CODE SIZE REDUCTION:4 WORDS
                 SUBOPT_0x15:
000f76 89a8      	LDD  R26,Y+16
000f77 89b9      	LDD  R27,Y+16+1
000f78 9614      	ADIW R26,4
000f79 940e 0fd2 	CALL __GETW1P
000f7b 83ee      	STD  Y+6,R30
000f7c 83ff      	STD  Y+6+1,R31
000f7d 81ae      	LDD  R26,Y+6
000f7e 81bf      	LDD  R27,Y+6+1
000f7f 9508      	RET
                 
                 ;OPTIMIZER ADDED SUBROUTINE, CALLED 2 TIMES, CODE SIZE REDUCTION:2 WORDS
                 SUBOPT_0x16:
000f80 89a8      	LDD  R26,Y+16
000f81 89b9      	LDD  R27,Y+16+1
000f82 9614      	ADIW R26,4
000f83 940e 0fd2 	CALL __GETW1P
000f85 87ea      	STD  Y+10,R30
000f86 87fb      	STD  Y+10+1,R31
000f87 9508      	RET
                 
                 
                 	.CSEG
                 _delay_ms:
000f88 9610      	adiw r26,0
000f89 f039      	breq __delay_ms1
                 __delay_ms0:
                +
000f8a ef8a     +LDI R24 , LOW ( 0xFA )
000f8b e090     +LDI R25 , HIGH ( 0xFA )
                +__DELAY_USW_LOOP :
000f8c 9701     +SBIW R24 , 1
000f8d f7f1     +BRNE __DELAY_USW_LOOP
                 	__DELAY_USW 0xFA
000f8e 95a8      	wdr
000f8f 9711      	sbiw r26,1
000f90 f7c9      	brne __delay_ms0
                 __delay_ms1:
000f91 9508      	ret
                 
                 __ADDW2R15:
000f92 2400      	CLR  R0
000f93 0daf      	ADD  R26,R15
000f94 1db0      	ADC  R27,R0
000f95 9508      	RET
                 
                 __ANEGW1:
000f96 95f1      	NEG  R31
000f97 95e1      	NEG  R30
000f98 40f0      	SBCI R31,0
000f99 9508      	RET
                 
                 __LSLB12:
000f9a 23ee      	TST  R30
000f9b 2e0e      	MOV  R0,R30
000f9c 2fea      	MOV  R30,R26
000f9d f019      	BREQ __LSLB12R
                 __LSLB12L:
000f9e 0fee      	LSL  R30
000f9f 940a      	DEC  R0
000fa0 f7e9      	BRNE __LSLB12L
                 __LSLB12R:
000fa1 9508      	RET
                 
                 __LSRB12:
000fa2 23ee      	TST  R30
000fa3 2e0e      	MOV  R0,R30
000fa4 2fea      	MOV  R30,R26
000fa5 f019      	BREQ __LSRB12R
                 __LSRB12L:
000fa6 95e6      	LSR  R30
000fa7 940a      	DEC  R0
000fa8 f7e9      	BRNE __LSRB12L
                 __LSRB12R:
000fa9 9508      	RET
                 
                 __MULW12U:
000faa 9ffa      	MUL  R31,R26
000fab 2df0      	MOV  R31,R0
000fac 9feb      	MUL  R30,R27
000fad 0df0      	ADD  R31,R0
000fae 9fea      	MUL  R30,R26
000faf 2de0      	MOV  R30,R0
000fb0 0df1      	ADD  R31,R1
000fb1 9508      	RET
                 
                 __MULD12U:
000fb2 9f7a      	MUL  R23,R26
000fb3 2d70      	MOV  R23,R0
000fb4 9f6b      	MUL  R22,R27
000fb5 0d70      	ADD  R23,R0
000fb6 9ff8      	MUL  R31,R24
000fb7 0d70      	ADD  R23,R0
000fb8 9fe9      	MUL  R30,R25
000fb9 0d70      	ADD  R23,R0
000fba 9f6a      	MUL  R22,R26
000fbb 2d60      	MOV  R22,R0
000fbc 0d71      	ADD  R23,R1
000fbd 9ffb      	MUL  R31,R27
000fbe 0d60      	ADD  R22,R0
000fbf 1d71      	ADC  R23,R1
000fc0 9fe8      	MUL  R30,R24
000fc1 0d60      	ADD  R22,R0
000fc2 1d71      	ADC  R23,R1
000fc3 2788      	CLR  R24
000fc4 9ffa      	MUL  R31,R26
000fc5 2df0      	MOV  R31,R0
000fc6 0d61      	ADD  R22,R1
000fc7 1f78      	ADC  R23,R24
000fc8 9feb      	MUL  R30,R27
000fc9 0df0      	ADD  R31,R0
000fca 1d61      	ADC  R22,R1
000fcb 1f78      	ADC  R23,R24
000fcc 9fea      	MUL  R30,R26
000fcd 2de0      	MOV  R30,R0
000fce 0df1      	ADD  R31,R1
000fcf 1f68      	ADC  R22,R24
000fd0 1f78      	ADC  R23,R24
000fd1 9508      	RET
                 
                 __GETW1P:
000fd2 91ed      	LD   R30,X+
000fd3 91fc      	LD   R31,X
000fd4 9711      	SBIW R26,1
000fd5 9508      	RET
                 
                 __GETW1PF:
000fd6 9005      	LPM  R0,Z+
000fd7 91f4      	LPM  R31,Z
000fd8 2de0      	MOV  R30,R0
000fd9 9508      	RET
                 
                 __EEPROMRDB:
000fda 99f9      	SBIC EECR,EEWE
000fdb cffe      	RJMP __EEPROMRDB
000fdc 93ff      	PUSH R31
000fdd b7ff      	IN   R31,SREG
000fde 94f8      	CLI
000fdf bda1      	OUT  EEARL,R26
000fe0 bdb2      	OUT  EEARH,R27
000fe1 9af8      	SBI  EECR,EERE
000fe2 b5e0      	IN   R30,EEDR
000fe3 bfff      	OUT  SREG,R31
000fe4 91ff      	POP  R31
000fe5 9508      	RET
                 
                 __EEPROMWRB:
000fe6 9bf9      	SBIS EECR,EEWE
000fe7 c002      	RJMP __EEPROMWRB1
000fe8 95a8      	WDR
000fe9 cffc      	RJMP __EEPROMWRB
                 __EEPROMWRB1:
000fea b79f      	IN   R25,SREG
000feb 94f8      	CLI
000fec bda1      	OUT  EEARL,R26
000fed bdb2      	OUT  EEARH,R27
000fee 9af8      	SBI  EECR,EERE
000fef b580      	IN   R24,EEDR
000ff0 17e8      	CP   R30,R24
000ff1 f019      	BREQ __EEPROMWRB0
000ff2 bde0      	OUT  EEDR,R30
000ff3 9afa      	SBI  EECR,EEMWE
000ff4 9af9      	SBI  EECR,EEWE
                 __EEPROMWRB0:
000ff5 bf9f      	OUT  SREG,R25
000ff6 9508      	RET
                 
                 __CPW02:
000ff7 2400      	CLR  R0
000ff8 160a      	CP   R0,R26
000ff9 060b      	CPC  R0,R27
000ffa 9508      	RET
                 
                 __SAVELOCR6:
000ffb 935a      	ST   -Y,R21
                 __SAVELOCR5:
000ffc 934a      	ST   -Y,R20
                 __SAVELOCR4:
000ffd 933a      	ST   -Y,R19
                 __SAVELOCR3:
000ffe 932a      	ST   -Y,R18
                 __SAVELOCR2:
000fff 931a      	ST   -Y,R17
001000 930a      	ST   -Y,R16
001001 9508      	RET
                 
                 __LOADLOCR6:
001002 815d      	LDD  R21,Y+5
                 __LOADLOCR5:
001003 814c      	LDD  R20,Y+4
                 __LOADLOCR4:
001004 813b      	LDD  R19,Y+3
                 __LOADLOCR3:
001005 812a      	LDD  R18,Y+2
                 __LOADLOCR2:
001006 8119      	LDD  R17,Y+1
001007 8108      	LD   R16,Y
001008 9508      	RET
                 
                 ;END OF CODE MARKER
                 __END_OF_CODE:


RESOURCE USE INFORMATION
------------------------

Notice:
The register and instruction counts are symbol table hit counts,
and hence implicitly used resources are not counted, eg, the
'lpm' instruction without operands implicitly uses r0 and z,
none of which are counted.

x,y,z are separate entities in the symbol table and are
counted separately from r26..r31 here.

.dseg memory usage only counts static data declared with .byte

ATmega328P register use summary:
r0 :  32 r1 :  11 r2 :   0 r3 :   0 r4 :   0 r5 :   0 r6 :   0 r7 :   0 
r8 :   0 r9 :   0 r10:   0 r11:   0 r12:   0 r13:   0 r14:   0 r15:   4 
r16:  83 r17:  48 r18:  33 r19:  48 r20:  43 r21:  19 r22:  20 r23:  16 
r24:  25 r25:   8 r26: 303 r27: 110 r28:  21 r29:   1 r30: 645 r31: 178 
x  :  21 y  : 445 z  :  29 
Registers used: 22 out of 35 (62.9%)

ATmega328P instruction use summary:
.lds  :   0 .lds.l:   0 .sts  :   0 .sts.l:   0 adc   :  13 add   :  19 
adiw  :  30 and   :   8 andi  :  20 asr   :   0 bclr  :   0 bld   :   0 
brbc  :   0 brbs  :   0 brcc  :   0 brcs  :   0 break :   0 breq  :  43 
brge  :   1 brhc  :   0 brhs  :   0 brid  :   0 brie  :   0 brlo  :  14 
brlt  :   4 brmi  :   0 brne  :  85 brpl  :   1 brsh  :  20 brtc  :   0 
brts  :   0 brvc  :   0 brvs  :   0 bset  :   0 bst   :   0 call  : 120 
cbi   :  19 cbr   :   0 clc   :   0 clh   :   0 cli   :   3 cln   :   0 
clr   :  24 cls   :   0 clt   :   0 clv   :   0 clz   :   0 com   :   7 
cp    :  17 cpc   :  15 cpi   : 107 cpse  :   0 dec   :   4 des   :   0 
eor   :   1 fmul  :   0 fmuls :   0 fmulsu:   0 icall :   4 ijmp  :   0 
in    :   4 inc   :   2 jmp   :  55 ld    :  43 ldd   : 231 ldi   : 258 
lds   :  55 lpm   :  24 lsl   :   2 lsr   :  15 mov   :  84 movw  :  14 
mul   :  15 muls  :   0 mulsu :   0 neg   :   2 nop   :   0 or    :   4 
ori   :  16 out   :  13 pop   :  12 push  :  12 rcall :  60 ret   :  45 
reti  :   0 rjmp  : 148 rol   :   0 ror   :   0 sbc   :   1 sbci  :  12 
sbi   :  33 sbic  :   5 sbis  :   5 sbiw  :  38 sbr   :   0 sbrc  :   2 
sbrs  :  10 sec   :   0 seh   :   0 sei   :   0 sen   :   0 ser   :   0 
ses   :   0 set   :   0 sev   :   0 sez   :   0 sleep :   0 spm   :   0 
st    : 132 std   :  70 sts   :  69 sub   :   6 subi  :  40 swap  :   0 
tst   :   5 wdr   :   2 
Instructions used: 60 out of 116 (51.7%)

ATmega328P memory use summary [bytes]:
Segment   Begin    End      Code   Data   Used    Size   Use%
---------------------------------------------------------------
[.cseg] 0x000000 0x002012   4834   3376   8210   32768  25.1%
[.dseg] 0x000100 0x0005dd      0    733    733    2048  35.8%
[.eseg] 0x000000 0x000000      0      0      0    1024   0.0%

Assembly complete, 0 errors, 5 warnings
